Archive member included because of file (symbol)

d:/altera13.1/nios2eds/bin/gnu/h-i686-mingw32/bin/../lib/gcc/nios2-elf/4.7.3\libgcc.a(lib2-divmod.o)
                              obj/default/main.o (__udivsi3)
d:/altera13.1/nios2eds/bin/gnu/h-i686-mingw32/bin/../lib/gcc/nios2-elf/4.7.3/../../../../../H-i686-mingw32/nios2-elf/lib\libc.a(lib_a-memcpy.o)
                              obj/default/mem_verify.o (memcpy)
d:/altera13.1/nios2eds/bin/gnu/h-i686-mingw32/bin/../lib/gcc/nios2-elf/4.7.3/../../../../../H-i686-mingw32/nios2-elf/lib\libc.a(lib_a-printf.o)
                              obj/default/main.o (printf)
d:/altera13.1/nios2eds/bin/gnu/h-i686-mingw32/bin/../lib/gcc/nios2-elf/4.7.3/../../../../../H-i686-mingw32/nios2-elf/lib\libc.a(lib_a-putchar.o)
                              obj/default/mem_verify.o (putchar)
d:/altera13.1/nios2eds/bin/gnu/h-i686-mingw32/bin/../lib/gcc/nios2-elf/4.7.3/../../../../../H-i686-mingw32/nios2-elf/lib\libc.a(lib_a-puts.o)
                              obj/default/main.o (puts)
d:/altera13.1/nios2eds/bin/gnu/h-i686-mingw32/bin/../lib/gcc/nios2-elf/4.7.3/../../../../../H-i686-mingw32/nios2-elf/lib\libc.a(lib_a-rand.o)
                              obj/default/mem_verify.o (srand)
d:/altera13.1/nios2eds/bin/gnu/h-i686-mingw32/bin/../lib/gcc/nios2-elf/4.7.3/../../../../../H-i686-mingw32/nios2-elf/lib\libc.a(lib_a-strlen.o)
                              d:/altera13.1/nios2eds/bin/gnu/h-i686-mingw32/bin/../lib/gcc/nios2-elf/4.7.3/../../../../../H-i686-mingw32/nios2-elf/lib\libc.a(lib_a-puts.o) (strlen)
d:/altera13.1/nios2eds/bin/gnu/h-i686-mingw32/bin/../lib/gcc/nios2-elf/4.7.3/../../../../../H-i686-mingw32/nios2-elf/lib\libc.a(lib_a-vfprintf.o)
                              d:/altera13.1/nios2eds/bin/gnu/h-i686-mingw32/bin/../lib/gcc/nios2-elf/4.7.3/../../../../../H-i686-mingw32/nios2-elf/lib\libc.a(lib_a-printf.o) (___vfprintf_internal_r)
d:/altera13.1/nios2eds/bin/gnu/h-i686-mingw32/bin/../lib/gcc/nios2-elf/4.7.3/../../../../../H-i686-mingw32/nios2-elf/lib\libc.a(lib_a-wsetup.o)
                              d:/altera13.1/nios2eds/bin/gnu/h-i686-mingw32/bin/../lib/gcc/nios2-elf/4.7.3/../../../../../H-i686-mingw32/nios2-elf/lib\libc.a(lib_a-vfprintf.o) (__swsetup_r)
d:/altera13.1/nios2eds/bin/gnu/h-i686-mingw32/bin/../lib/gcc/nios2-elf/4.7.3/../../../../../H-i686-mingw32/nios2-elf/lib\libc.a(lib_a-dtoa.o)
                              d:/altera13.1/nios2eds/bin/gnu/h-i686-mingw32/bin/../lib/gcc/nios2-elf/4.7.3/../../../../../H-i686-mingw32/nios2-elf/lib\libc.a(lib_a-vfprintf.o) (_dtoa_r)
d:/altera13.1/nios2eds/bin/gnu/h-i686-mingw32/bin/../lib/gcc/nios2-elf/4.7.3/../../../../../H-i686-mingw32/nios2-elf/lib\libc.a(lib_a-fflush.o)
                              d:/altera13.1/nios2eds/bin/gnu/h-i686-mingw32/bin/../lib/gcc/nios2-elf/4.7.3/../../../../../H-i686-mingw32/nios2-elf/lib\libc.a(lib_a-vfprintf.o) (_fflush_r)
d:/altera13.1/nios2eds/bin/gnu/h-i686-mingw32/bin/../lib/gcc/nios2-elf/4.7.3/../../../../../H-i686-mingw32/nios2-elf/lib\libc.a(lib_a-findfp.o)
                              d:/altera13.1/nios2eds/bin/gnu/h-i686-mingw32/bin/../lib/gcc/nios2-elf/4.7.3/../../../../../H-i686-mingw32/nios2-elf/lib\libc.a(lib_a-vfprintf.o) (__sinit)
d:/altera13.1/nios2eds/bin/gnu/h-i686-mingw32/bin/../lib/gcc/nios2-elf/4.7.3/../../../../../H-i686-mingw32/nios2-elf/lib\libc.a(lib_a-freer.o)
                              d:/altera13.1/nios2eds/bin/gnu/h-i686-mingw32/bin/../lib/gcc/nios2-elf/4.7.3/../../../../../H-i686-mingw32/nios2-elf/lib\libc.a(lib_a-wsetup.o) (_free_r)
d:/altera13.1/nios2eds/bin/gnu/h-i686-mingw32/bin/../lib/gcc/nios2-elf/4.7.3/../../../../../H-i686-mingw32/nios2-elf/lib\libc.a(lib_a-fvwrite.o)
                              d:/altera13.1/nios2eds/bin/gnu/h-i686-mingw32/bin/../lib/gcc/nios2-elf/4.7.3/../../../../../H-i686-mingw32/nios2-elf/lib\libc.a(lib_a-puts.o) (__sfvwrite_r)
d:/altera13.1/nios2eds/bin/gnu/h-i686-mingw32/bin/../lib/gcc/nios2-elf/4.7.3/../../../../../H-i686-mingw32/nios2-elf/lib\libc.a(lib_a-fwalk.o)
                              d:/altera13.1/nios2eds/bin/gnu/h-i686-mingw32/bin/../lib/gcc/nios2-elf/4.7.3/../../../../../H-i686-mingw32/nios2-elf/lib\libc.a(lib_a-findfp.o) (_fwalk)
d:/altera13.1/nios2eds/bin/gnu/h-i686-mingw32/bin/../lib/gcc/nios2-elf/4.7.3/../../../../../H-i686-mingw32/nios2-elf/lib\libc.a(lib_a-impure.o)
                              d:/altera13.1/nios2eds/bin/gnu/h-i686-mingw32/bin/../lib/gcc/nios2-elf/4.7.3/../../../../../H-i686-mingw32/nios2-elf/lib\libc.a(lib_a-fflush.o) (_global_impure_ptr)
d:/altera13.1/nios2eds/bin/gnu/h-i686-mingw32/bin/../lib/gcc/nios2-elf/4.7.3/../../../../../H-i686-mingw32/nios2-elf/lib\libc.a(lib_a-locale.o)
                              d:/altera13.1/nios2eds/bin/gnu/h-i686-mingw32/bin/../lib/gcc/nios2-elf/4.7.3/../../../../../H-i686-mingw32/nios2-elf/lib\libc.a(lib_a-vfprintf.o) (_localeconv_r)
d:/altera13.1/nios2eds/bin/gnu/h-i686-mingw32/bin/../lib/gcc/nios2-elf/4.7.3/../../../../../H-i686-mingw32/nios2-elf/lib\libc.a(lib_a-makebuf.o)
                              d:/altera13.1/nios2eds/bin/gnu/h-i686-mingw32/bin/../lib/gcc/nios2-elf/4.7.3/../../../../../H-i686-mingw32/nios2-elf/lib\libc.a(lib_a-wsetup.o) (__smakebuf_r)
d:/altera13.1/nios2eds/bin/gnu/h-i686-mingw32/bin/../lib/gcc/nios2-elf/4.7.3/../../../../../H-i686-mingw32/nios2-elf/lib\libc.a(lib_a-mallocr.o)
                              d:/altera13.1/nios2eds/bin/gnu/h-i686-mingw32/bin/../lib/gcc/nios2-elf/4.7.3/../../../../../H-i686-mingw32/nios2-elf/lib\libc.a(lib_a-findfp.o) (_malloc_r)
d:/altera13.1/nios2eds/bin/gnu/h-i686-mingw32/bin/../lib/gcc/nios2-elf/4.7.3/../../../../../H-i686-mingw32/nios2-elf/lib\libc.a(lib_a-memchr.o)
                              d:/altera13.1/nios2eds/bin/gnu/h-i686-mingw32/bin/../lib/gcc/nios2-elf/4.7.3/../../../../../H-i686-mingw32/nios2-elf/lib\libc.a(lib_a-vfprintf.o) (memchr)
d:/altera13.1/nios2eds/bin/gnu/h-i686-mingw32/bin/../lib/gcc/nios2-elf/4.7.3/../../../../../H-i686-mingw32/nios2-elf/lib\libc.a(lib_a-memmove.o)
                              d:/altera13.1/nios2eds/bin/gnu/h-i686-mingw32/bin/../lib/gcc/nios2-elf/4.7.3/../../../../../H-i686-mingw32/nios2-elf/lib\libc.a(lib_a-fvwrite.o) (memmove)
d:/altera13.1/nios2eds/bin/gnu/h-i686-mingw32/bin/../lib/gcc/nios2-elf/4.7.3/../../../../../H-i686-mingw32/nios2-elf/lib\libc.a(lib_a-memset.o)
                              d:/altera13.1/nios2eds/bin/gnu/h-i686-mingw32/bin/../lib/gcc/nios2-elf/4.7.3/../../../../../H-i686-mingw32/nios2-elf/lib\libc.a(lib_a-findfp.o) (memset)
d:/altera13.1/nios2eds/bin/gnu/h-i686-mingw32/bin/../lib/gcc/nios2-elf/4.7.3/../../../../../H-i686-mingw32/nios2-elf/lib\libc.a(lib_a-mprec.o)
                              d:/altera13.1/nios2eds/bin/gnu/h-i686-mingw32/bin/../lib/gcc/nios2-elf/4.7.3/../../../../../H-i686-mingw32/nios2-elf/lib\libc.a(lib_a-dtoa.o) (_Balloc)
d:/altera13.1/nios2eds/bin/gnu/h-i686-mingw32/bin/../lib/gcc/nios2-elf/4.7.3/../../../../../H-i686-mingw32/nios2-elf/lib\libc.a(lib_a-putc.o)
                              d:/altera13.1/nios2eds/bin/gnu/h-i686-mingw32/bin/../lib/gcc/nios2-elf/4.7.3/../../../../../H-i686-mingw32/nios2-elf/lib\libc.a(lib_a-putchar.o) (_putc_r)
d:/altera13.1/nios2eds/bin/gnu/h-i686-mingw32/bin/../lib/gcc/nios2-elf/4.7.3/../../../../../H-i686-mingw32/nios2-elf/lib\libc.a(lib_a-reallocr.o)
                              d:/altera13.1/nios2eds/bin/gnu/h-i686-mingw32/bin/../lib/gcc/nios2-elf/4.7.3/../../../../../H-i686-mingw32/nios2-elf/lib\libc.a(lib_a-fvwrite.o) (_realloc_r)
d:/altera13.1/nios2eds/bin/gnu/h-i686-mingw32/bin/../lib/gcc/nios2-elf/4.7.3/../../../../../H-i686-mingw32/nios2-elf/lib\libc.a(lib_a-s_isinfd.o)
                              d:/altera13.1/nios2eds/bin/gnu/h-i686-mingw32/bin/../lib/gcc/nios2-elf/4.7.3/../../../../../H-i686-mingw32/nios2-elf/lib\libc.a(lib_a-vfprintf.o) (__isinfd)
d:/altera13.1/nios2eds/bin/gnu/h-i686-mingw32/bin/../lib/gcc/nios2-elf/4.7.3/../../../../../H-i686-mingw32/nios2-elf/lib\libc.a(lib_a-s_isnand.o)
                              d:/altera13.1/nios2eds/bin/gnu/h-i686-mingw32/bin/../lib/gcc/nios2-elf/4.7.3/../../../../../H-i686-mingw32/nios2-elf/lib\libc.a(lib_a-vfprintf.o) (__isnand)
d:/altera13.1/nios2eds/bin/gnu/h-i686-mingw32/bin/../lib/gcc/nios2-elf/4.7.3/../../../../../H-i686-mingw32/nios2-elf/lib\libc.a(lib_a-sbrkr.o)
                              d:/altera13.1/nios2eds/bin/gnu/h-i686-mingw32/bin/../lib/gcc/nios2-elf/4.7.3/../../../../../H-i686-mingw32/nios2-elf/lib\libc.a(lib_a-freer.o) (_sbrk_r)
d:/altera13.1/nios2eds/bin/gnu/h-i686-mingw32/bin/../lib/gcc/nios2-elf/4.7.3/../../../../../H-i686-mingw32/nios2-elf/lib\libc.a(lib_a-stdio.o)
                              d:/altera13.1/nios2eds/bin/gnu/h-i686-mingw32/bin/../lib/gcc/nios2-elf/4.7.3/../../../../../H-i686-mingw32/nios2-elf/lib\libc.a(lib_a-findfp.o) (__sread)
d:/altera13.1/nios2eds/bin/gnu/h-i686-mingw32/bin/../lib/gcc/nios2-elf/4.7.3/../../../../../H-i686-mingw32/nios2-elf/lib\libc.a(lib_a-strcmp.o)
                              d:/altera13.1/nios2eds/bin/gnu/h-i686-mingw32/bin/../lib/gcc/nios2-elf/4.7.3/../../../../../H-i686-mingw32/nios2-elf/lib\libc.a(lib_a-locale.o) (strcmp)
d:/altera13.1/nios2eds/bin/gnu/h-i686-mingw32/bin/../lib/gcc/nios2-elf/4.7.3/../../../../../H-i686-mingw32/nios2-elf/lib\libc.a(lib_a-wbuf.o)
                              d:/altera13.1/nios2eds/bin/gnu/h-i686-mingw32/bin/../lib/gcc/nios2-elf/4.7.3/../../../../../H-i686-mingw32/nios2-elf/lib\libc.a(lib_a-putc.o) (__swbuf_r)
d:/altera13.1/nios2eds/bin/gnu/h-i686-mingw32/bin/../lib/gcc/nios2-elf/4.7.3/../../../../../H-i686-mingw32/nios2-elf/lib\libc.a(lib_a-writer.o)
                              d:/altera13.1/nios2eds/bin/gnu/h-i686-mingw32/bin/../lib/gcc/nios2-elf/4.7.3/../../../../../H-i686-mingw32/nios2-elf/lib\libc.a(lib_a-stdio.o) (_write_r)
d:/altera13.1/nios2eds/bin/gnu/h-i686-mingw32/bin/../lib/gcc/nios2-elf/4.7.3/../../../../../H-i686-mingw32/nios2-elf/lib\libc.a(lib_a-callocr.o)
                              d:/altera13.1/nios2eds/bin/gnu/h-i686-mingw32/bin/../lib/gcc/nios2-elf/4.7.3/../../../../../H-i686-mingw32/nios2-elf/lib\libc.a(lib_a-mprec.o) (_calloc_r)
d:/altera13.1/nios2eds/bin/gnu/h-i686-mingw32/bin/../lib/gcc/nios2-elf/4.7.3/../../../../../H-i686-mingw32/nios2-elf/lib\libc.a(lib_a-closer.o)
                              d:/altera13.1/nios2eds/bin/gnu/h-i686-mingw32/bin/../lib/gcc/nios2-elf/4.7.3/../../../../../H-i686-mingw32/nios2-elf/lib\libc.a(lib_a-stdio.o) (_close_r)
d:/altera13.1/nios2eds/bin/gnu/h-i686-mingw32/bin/../lib/gcc/nios2-elf/4.7.3/../../../../../H-i686-mingw32/nios2-elf/lib\libc.a(lib_a-fclose.o)
                              d:/altera13.1/nios2eds/bin/gnu/h-i686-mingw32/bin/../lib/gcc/nios2-elf/4.7.3/../../../../../H-i686-mingw32/nios2-elf/lib\libc.a(lib_a-findfp.o) (fclose)
d:/altera13.1/nios2eds/bin/gnu/h-i686-mingw32/bin/../lib/gcc/nios2-elf/4.7.3/../../../../../H-i686-mingw32/nios2-elf/lib\libc.a(lib_a-fstatr.o)
                              d:/altera13.1/nios2eds/bin/gnu/h-i686-mingw32/bin/../lib/gcc/nios2-elf/4.7.3/../../../../../H-i686-mingw32/nios2-elf/lib\libc.a(lib_a-makebuf.o) (_fstat_r)
d:/altera13.1/nios2eds/bin/gnu/h-i686-mingw32/bin/../lib/gcc/nios2-elf/4.7.3/../../../../../H-i686-mingw32/nios2-elf/lib\libc.a(lib_a-int_errno.o)
                              d:/altera13.1/nios2eds/bin/gnu/h-i686-mingw32/bin/../lib/gcc/nios2-elf/4.7.3/../../../../../H-i686-mingw32/nios2-elf/lib\libc.a(lib_a-sbrkr.o) (errno)
d:/altera13.1/nios2eds/bin/gnu/h-i686-mingw32/bin/../lib/gcc/nios2-elf/4.7.3/../../../../../H-i686-mingw32/nios2-elf/lib\libc.a(lib_a-isattyr.o)
                              d:/altera13.1/nios2eds/bin/gnu/h-i686-mingw32/bin/../lib/gcc/nios2-elf/4.7.3/../../../../../H-i686-mingw32/nios2-elf/lib\libc.a(lib_a-makebuf.o) (_isatty_r)
d:/altera13.1/nios2eds/bin/gnu/h-i686-mingw32/bin/../lib/gcc/nios2-elf/4.7.3/../../../../../H-i686-mingw32/nios2-elf/lib\libc.a(lib_a-lseekr.o)
                              d:/altera13.1/nios2eds/bin/gnu/h-i686-mingw32/bin/../lib/gcc/nios2-elf/4.7.3/../../../../../H-i686-mingw32/nios2-elf/lib\libc.a(lib_a-stdio.o) (_lseek_r)
d:/altera13.1/nios2eds/bin/gnu/h-i686-mingw32/bin/../lib/gcc/nios2-elf/4.7.3/../../../../../H-i686-mingw32/nios2-elf/lib\libc.a(lib_a-readr.o)
                              d:/altera13.1/nios2eds/bin/gnu/h-i686-mingw32/bin/../lib/gcc/nios2-elf/4.7.3/../../../../../H-i686-mingw32/nios2-elf/lib\libc.a(lib_a-stdio.o) (_read_r)
d:/altera13.1/nios2eds/bin/gnu/h-i686-mingw32/bin/../lib/gcc/nios2-elf/4.7.3\libgcc.a(_muldi3.o)
                              d:/altera13.1/nios2eds/bin/gnu/h-i686-mingw32/bin/../lib/gcc/nios2-elf/4.7.3/../../../../../H-i686-mingw32/nios2-elf/lib\libc.a(lib_a-rand.o) (__muldi3)
d:/altera13.1/nios2eds/bin/gnu/h-i686-mingw32/bin/../lib/gcc/nios2-elf/4.7.3\libgcc.a(_udivdi3.o)
                              d:/altera13.1/nios2eds/bin/gnu/h-i686-mingw32/bin/../lib/gcc/nios2-elf/4.7.3/../../../../../H-i686-mingw32/nios2-elf/lib\libc.a(lib_a-vfprintf.o) (__udivdi3)
d:/altera13.1/nios2eds/bin/gnu/h-i686-mingw32/bin/../lib/gcc/nios2-elf/4.7.3\libgcc.a(_umoddi3.o)
                              d:/altera13.1/nios2eds/bin/gnu/h-i686-mingw32/bin/../lib/gcc/nios2-elf/4.7.3/../../../../../H-i686-mingw32/nios2-elf/lib\libc.a(lib_a-vfprintf.o) (__umoddi3)
d:/altera13.1/nios2eds/bin/gnu/h-i686-mingw32/bin/../lib/gcc/nios2-elf/4.7.3\libgcc.a(_addsub_df.o)
                              d:/altera13.1/nios2eds/bin/gnu/h-i686-mingw32/bin/../lib/gcc/nios2-elf/4.7.3/../../../../../H-i686-mingw32/nios2-elf/lib\libc.a(lib_a-dtoa.o) (__adddf3)
d:/altera13.1/nios2eds/bin/gnu/h-i686-mingw32/bin/../lib/gcc/nios2-elf/4.7.3\libgcc.a(_mul_df.o)
                              d:/altera13.1/nios2eds/bin/gnu/h-i686-mingw32/bin/../lib/gcc/nios2-elf/4.7.3/../../../../../H-i686-mingw32/nios2-elf/lib\libc.a(lib_a-dtoa.o) (__muldf3)
d:/altera13.1/nios2eds/bin/gnu/h-i686-mingw32/bin/../lib/gcc/nios2-elf/4.7.3\libgcc.a(_div_df.o)
                              d:/altera13.1/nios2eds/bin/gnu/h-i686-mingw32/bin/../lib/gcc/nios2-elf/4.7.3/../../../../../H-i686-mingw32/nios2-elf/lib\libc.a(lib_a-dtoa.o) (__divdf3)
d:/altera13.1/nios2eds/bin/gnu/h-i686-mingw32/bin/../lib/gcc/nios2-elf/4.7.3\libgcc.a(_eq_df.o)
                              d:/altera13.1/nios2eds/bin/gnu/h-i686-mingw32/bin/../lib/gcc/nios2-elf/4.7.3/../../../../../H-i686-mingw32/nios2-elf/lib\libc.a(lib_a-vfprintf.o) (__eqdf2)
d:/altera13.1/nios2eds/bin/gnu/h-i686-mingw32/bin/../lib/gcc/nios2-elf/4.7.3\libgcc.a(_ne_df.o)
                              d:/altera13.1/nios2eds/bin/gnu/h-i686-mingw32/bin/../lib/gcc/nios2-elf/4.7.3/../../../../../H-i686-mingw32/nios2-elf/lib\libc.a(lib_a-vfprintf.o) (__nedf2)
d:/altera13.1/nios2eds/bin/gnu/h-i686-mingw32/bin/../lib/gcc/nios2-elf/4.7.3\libgcc.a(_gt_df.o)
                              d:/altera13.1/nios2eds/bin/gnu/h-i686-mingw32/bin/../lib/gcc/nios2-elf/4.7.3/../../../../../H-i686-mingw32/nios2-elf/lib\libc.a(lib_a-dtoa.o) (__gtdf2)
d:/altera13.1/nios2eds/bin/gnu/h-i686-mingw32/bin/../lib/gcc/nios2-elf/4.7.3\libgcc.a(_ge_df.o)
                              d:/altera13.1/nios2eds/bin/gnu/h-i686-mingw32/bin/../lib/gcc/nios2-elf/4.7.3/../../../../../H-i686-mingw32/nios2-elf/lib\libc.a(lib_a-dtoa.o) (__gedf2)
d:/altera13.1/nios2eds/bin/gnu/h-i686-mingw32/bin/../lib/gcc/nios2-elf/4.7.3\libgcc.a(_lt_df.o)
                              d:/altera13.1/nios2eds/bin/gnu/h-i686-mingw32/bin/../lib/gcc/nios2-elf/4.7.3/../../../../../H-i686-mingw32/nios2-elf/lib\libc.a(lib_a-vfprintf.o) (__ltdf2)
d:/altera13.1/nios2eds/bin/gnu/h-i686-mingw32/bin/../lib/gcc/nios2-elf/4.7.3\libgcc.a(_si_to_df.o)
                              d:/altera13.1/nios2eds/bin/gnu/h-i686-mingw32/bin/../lib/gcc/nios2-elf/4.7.3/../../../../../H-i686-mingw32/nios2-elf/lib\libc.a(lib_a-dtoa.o) (__floatsidf)
d:/altera13.1/nios2eds/bin/gnu/h-i686-mingw32/bin/../lib/gcc/nios2-elf/4.7.3\libgcc.a(_df_to_si.o)
                              d:/altera13.1/nios2eds/bin/gnu/h-i686-mingw32/bin/../lib/gcc/nios2-elf/4.7.3/../../../../../H-i686-mingw32/nios2-elf/lib\libc.a(lib_a-dtoa.o) (__fixdfsi)
d:/altera13.1/nios2eds/bin/gnu/h-i686-mingw32/bin/../lib/gcc/nios2-elf/4.7.3\libgcc.a(_thenan_df.o)
                              d:/altera13.1/nios2eds/bin/gnu/h-i686-mingw32/bin/../lib/gcc/nios2-elf/4.7.3\libgcc.a(_addsub_df.o) (__thenan_df)
d:/altera13.1/nios2eds/bin/gnu/h-i686-mingw32/bin/../lib/gcc/nios2-elf/4.7.3\libgcc.a(_usi_to_df.o)
                              d:/altera13.1/nios2eds/bin/gnu/h-i686-mingw32/bin/../lib/gcc/nios2-elf/4.7.3/../../../../../H-i686-mingw32/nios2-elf/lib\libc.a(lib_a-dtoa.o) (__floatunsidf)
d:/altera13.1/nios2eds/bin/gnu/h-i686-mingw32/bin/../lib/gcc/nios2-elf/4.7.3\libgcc.a(_clz.o)
                              d:/altera13.1/nios2eds/bin/gnu/h-i686-mingw32/bin/../lib/gcc/nios2-elf/4.7.3\libgcc.a(_udivdi3.o) (__clz_tab)
d:/altera13.1/nios2eds/bin/gnu/h-i686-mingw32/bin/../lib/gcc/nios2-elf/4.7.3\libgcc.a(_clzsi2.o)
                              d:/altera13.1/nios2eds/bin/gnu/h-i686-mingw32/bin/../lib/gcc/nios2-elf/4.7.3\libgcc.a(_si_to_df.o) (__clzsi2)
d:/altera13.1/nios2eds/bin/gnu/h-i686-mingw32/bin/../lib/gcc/nios2-elf/4.7.3\libgcc.a(_pack_df.o)
                              d:/altera13.1/nios2eds/bin/gnu/h-i686-mingw32/bin/../lib/gcc/nios2-elf/4.7.3\libgcc.a(_addsub_df.o) (__pack_d)
d:/altera13.1/nios2eds/bin/gnu/h-i686-mingw32/bin/../lib/gcc/nios2-elf/4.7.3\libgcc.a(_unpack_df.o)
                              d:/altera13.1/nios2eds/bin/gnu/h-i686-mingw32/bin/../lib/gcc/nios2-elf/4.7.3\libgcc.a(_addsub_df.o) (__unpack_d)
d:/altera13.1/nios2eds/bin/gnu/h-i686-mingw32/bin/../lib/gcc/nios2-elf/4.7.3\libgcc.a(_fpcmp_parts_df.o)
                              d:/altera13.1/nios2eds/bin/gnu/h-i686-mingw32/bin/../lib/gcc/nios2-elf/4.7.3\libgcc.a(_eq_df.o) (__fpcmp_parts_d)
d:/altera13.1/nios2eds/bin/gnu/h-i686-mingw32/bin/../lib/gcc/nios2-elf/4.7.3\libgcc.a(_lshrdi3.o)
                              d:/altera13.1/nios2eds/bin/gnu/h-i686-mingw32/bin/../lib/gcc/nios2-elf/4.7.3\libgcc.a(_pack_df.o) (__lshrdi3)
d:/altera13.1/nios2eds/bin/gnu/h-i686-mingw32/bin/../lib/gcc/nios2-elf/4.7.3\libgcc.a(_ashldi3.o)
                              d:/altera13.1/nios2eds/bin/gnu/h-i686-mingw32/bin/../lib/gcc/nios2-elf/4.7.3\libgcc.a(_pack_df.o) (__ashldi3)
../DE1_SoC_SDRAM_Nios_Test_bsp/\libhal_bsp.a(alt_close.o)
                              d:/altera13.1/nios2eds/bin/gnu/h-i686-mingw32/bin/../lib/gcc/nios2-elf/4.7.3/../../../../../H-i686-mingw32/nios2-elf/lib\libc.a(lib_a-closer.o) (close)
../DE1_SoC_SDRAM_Nios_Test_bsp/\libhal_bsp.a(alt_dcache_flush_all.o)
                              obj/default/mem_verify.o (alt_dcache_flush_all)
../DE1_SoC_SDRAM_Nios_Test_bsp/\libhal_bsp.a(alt_dev.o)
                              ../DE1_SoC_SDRAM_Nios_Test_bsp/\libhal_bsp.a(alt_close.o) (alt_fd_list)
../DE1_SoC_SDRAM_Nios_Test_bsp/\libhal_bsp.a(alt_errno.o)
                              ../DE1_SoC_SDRAM_Nios_Test_bsp/\libhal_bsp.a(alt_close.o) (alt_errno)
../DE1_SoC_SDRAM_Nios_Test_bsp/\libhal_bsp.a(alt_fstat.o)
                              d:/altera13.1/nios2eds/bin/gnu/h-i686-mingw32/bin/../lib/gcc/nios2-elf/4.7.3/../../../../../H-i686-mingw32/nios2-elf/lib\libc.a(lib_a-fstatr.o) (fstat)
../DE1_SoC_SDRAM_Nios_Test_bsp/\libhal_bsp.a(alt_isatty.o)
                              d:/altera13.1/nios2eds/bin/gnu/h-i686-mingw32/bin/../lib/gcc/nios2-elf/4.7.3/../../../../../H-i686-mingw32/nios2-elf/lib\libc.a(lib_a-isattyr.o) (isatty)
../DE1_SoC_SDRAM_Nios_Test_bsp/\libhal_bsp.a(alt_load.o)
                              ../DE1_SoC_SDRAM_Nios_Test_bsp//obj/HAL/src/crt0.o (alt_load)
../DE1_SoC_SDRAM_Nios_Test_bsp/\libhal_bsp.a(alt_lseek.o)
                              d:/altera13.1/nios2eds/bin/gnu/h-i686-mingw32/bin/../lib/gcc/nios2-elf/4.7.3/../../../../../H-i686-mingw32/nios2-elf/lib\libc.a(lib_a-lseekr.o) (lseek)
../DE1_SoC_SDRAM_Nios_Test_bsp/\libhal_bsp.a(alt_main.o)
                              ../DE1_SoC_SDRAM_Nios_Test_bsp//obj/HAL/src/crt0.o (alt_main)
../DE1_SoC_SDRAM_Nios_Test_bsp/\libhal_bsp.a(alt_malloc_lock.o)
                              d:/altera13.1/nios2eds/bin/gnu/h-i686-mingw32/bin/../lib/gcc/nios2-elf/4.7.3/../../../../../H-i686-mingw32/nios2-elf/lib\libc.a(lib_a-freer.o) (__malloc_lock)
../DE1_SoC_SDRAM_Nios_Test_bsp/\libhal_bsp.a(alt_read.o)
                              d:/altera13.1/nios2eds/bin/gnu/h-i686-mingw32/bin/../lib/gcc/nios2-elf/4.7.3/../../../../../H-i686-mingw32/nios2-elf/lib\libc.a(lib_a-readr.o) (read)
../DE1_SoC_SDRAM_Nios_Test_bsp/\libhal_bsp.a(alt_release_fd.o)
                              ../DE1_SoC_SDRAM_Nios_Test_bsp/\libhal_bsp.a(alt_close.o) (alt_release_fd)
../DE1_SoC_SDRAM_Nios_Test_bsp/\libhal_bsp.a(alt_sbrk.o)
                              d:/altera13.1/nios2eds/bin/gnu/h-i686-mingw32/bin/../lib/gcc/nios2-elf/4.7.3/../../../../../H-i686-mingw32/nios2-elf/lib\libc.a(lib_a-sbrkr.o) (sbrk)
../DE1_SoC_SDRAM_Nios_Test_bsp/\libhal_bsp.a(alt_tick.o)
                              obj/default/main.o (_alt_tick_rate)
../DE1_SoC_SDRAM_Nios_Test_bsp/\libhal_bsp.a(alt_usleep.o)
                              obj/default/main.o (usleep)
../DE1_SoC_SDRAM_Nios_Test_bsp/\libhal_bsp.a(alt_write.o)
                              d:/altera13.1/nios2eds/bin/gnu/h-i686-mingw32/bin/../lib/gcc/nios2-elf/4.7.3/../../../../../H-i686-mingw32/nios2-elf/lib\libc.a(lib_a-writer.o) (write)
../DE1_SoC_SDRAM_Nios_Test_bsp/\libhal_bsp.a(alt_sys_init.o)
                              ../DE1_SoC_SDRAM_Nios_Test_bsp/\libhal_bsp.a(alt_main.o) (alt_irq_init)
../DE1_SoC_SDRAM_Nios_Test_bsp/\libhal_bsp.a(altera_avalon_jtag_uart_fd.o)
                              ../DE1_SoC_SDRAM_Nios_Test_bsp/\libhal_bsp.a(alt_sys_init.o) (altera_avalon_jtag_uart_read_fd)
../DE1_SoC_SDRAM_Nios_Test_bsp/\libhal_bsp.a(altera_avalon_jtag_uart_init.o)
                              ../DE1_SoC_SDRAM_Nios_Test_bsp/\libhal_bsp.a(alt_sys_init.o) (altera_avalon_jtag_uart_init)
../DE1_SoC_SDRAM_Nios_Test_bsp/\libhal_bsp.a(altera_avalon_jtag_uart_ioctl.o)
                              ../DE1_SoC_SDRAM_Nios_Test_bsp/\libhal_bsp.a(altera_avalon_jtag_uart_fd.o) (altera_avalon_jtag_uart_ioctl)
../DE1_SoC_SDRAM_Nios_Test_bsp/\libhal_bsp.a(altera_avalon_jtag_uart_read.o)
                              ../DE1_SoC_SDRAM_Nios_Test_bsp/\libhal_bsp.a(altera_avalon_jtag_uart_fd.o) (altera_avalon_jtag_uart_read)
../DE1_SoC_SDRAM_Nios_Test_bsp/\libhal_bsp.a(altera_avalon_jtag_uart_write.o)
                              ../DE1_SoC_SDRAM_Nios_Test_bsp/\libhal_bsp.a(altera_avalon_jtag_uart_fd.o) (altera_avalon_jtag_uart_write)
../DE1_SoC_SDRAM_Nios_Test_bsp/\libhal_bsp.a(altera_avalon_timer_sc.o)
                              ../DE1_SoC_SDRAM_Nios_Test_bsp/\libhal_bsp.a(alt_sys_init.o) (alt_avalon_timer_sc_init)
../DE1_SoC_SDRAM_Nios_Test_bsp/\libhal_bsp.a(alt_alarm_start.o)
                              ../DE1_SoC_SDRAM_Nios_Test_bsp/\libhal_bsp.a(altera_avalon_jtag_uart_init.o) (alt_alarm_start)
../DE1_SoC_SDRAM_Nios_Test_bsp/\libhal_bsp.a(alt_busy_sleep.o)
                              ../DE1_SoC_SDRAM_Nios_Test_bsp/\libhal_bsp.a(alt_usleep.o) (alt_busy_sleep)
../DE1_SoC_SDRAM_Nios_Test_bsp/\libhal_bsp.a(alt_dev_llist_insert.o)
                              ../DE1_SoC_SDRAM_Nios_Test_bsp/\libhal_bsp.a(alt_sys_init.o) (alt_dev_llist_insert)
../DE1_SoC_SDRAM_Nios_Test_bsp/\libhal_bsp.a(alt_do_ctors.o)
                              ../DE1_SoC_SDRAM_Nios_Test_bsp/\libhal_bsp.a(alt_main.o) (_do_ctors)
../DE1_SoC_SDRAM_Nios_Test_bsp/\libhal_bsp.a(alt_do_dtors.o)
                              ../DE1_SoC_SDRAM_Nios_Test_bsp/\libhal_bsp.a(alt_main.o) (_do_dtors)
../DE1_SoC_SDRAM_Nios_Test_bsp/\libhal_bsp.a(alt_icache_flush_all.o)
                              ../DE1_SoC_SDRAM_Nios_Test_bsp/\libhal_bsp.a(alt_load.o) (alt_icache_flush_all)
../DE1_SoC_SDRAM_Nios_Test_bsp/\libhal_bsp.a(alt_iic.o)
                              ../DE1_SoC_SDRAM_Nios_Test_bsp/\libhal_bsp.a(altera_avalon_jtag_uart_init.o) (alt_ic_isr_register)
../DE1_SoC_SDRAM_Nios_Test_bsp/\libhal_bsp.a(alt_iic_isr_register.o)
                              ../DE1_SoC_SDRAM_Nios_Test_bsp/\libhal_bsp.a(alt_iic.o) (alt_iic_isr_register)
../DE1_SoC_SDRAM_Nios_Test_bsp/\libhal_bsp.a(alt_io_redirect.o)
                              ../DE1_SoC_SDRAM_Nios_Test_bsp/\libhal_bsp.a(alt_main.o) (alt_io_redirect)
../DE1_SoC_SDRAM_Nios_Test_bsp/\libhal_bsp.a(alt_irq_entry.o)
                              ../DE1_SoC_SDRAM_Nios_Test_bsp/\libhal_bsp.a(alt_iic_isr_register.o) (alt_irq_entry)
../DE1_SoC_SDRAM_Nios_Test_bsp/\libhal_bsp.a(alt_irq_handler.o)
                              ../DE1_SoC_SDRAM_Nios_Test_bsp/\libhal_bsp.a(alt_iic_isr_register.o) (alt_irq)
../DE1_SoC_SDRAM_Nios_Test_bsp/\libhal_bsp.a(alt_irq_vars.o)
                              ../DE1_SoC_SDRAM_Nios_Test_bsp/\libhal_bsp.a(alt_iic.o) (alt_irq_active)
../DE1_SoC_SDRAM_Nios_Test_bsp/\libhal_bsp.a(alt_open.o)
                              ../DE1_SoC_SDRAM_Nios_Test_bsp/\libhal_bsp.a(alt_io_redirect.o) (open)
../DE1_SoC_SDRAM_Nios_Test_bsp/\libhal_bsp.a(altera_nios2_qsys_irq.o)
                              ../DE1_SoC_SDRAM_Nios_Test_bsp/\libhal_bsp.a(alt_sys_init.o) (altera_nios2_qsys_irq_init)
../DE1_SoC_SDRAM_Nios_Test_bsp/\libhal_bsp.a(alt_exception_entry.o)
                              ../DE1_SoC_SDRAM_Nios_Test_bsp/\libhal_bsp.a(alt_irq_entry.o) (alt_exception)
../DE1_SoC_SDRAM_Nios_Test_bsp/\libhal_bsp.a(alt_find_dev.o)
                              ../DE1_SoC_SDRAM_Nios_Test_bsp/\libhal_bsp.a(alt_open.o) (alt_find_dev)
../DE1_SoC_SDRAM_Nios_Test_bsp/\libhal_bsp.a(alt_find_file.o)
                              ../DE1_SoC_SDRAM_Nios_Test_bsp/\libhal_bsp.a(alt_open.o) (alt_find_file)
../DE1_SoC_SDRAM_Nios_Test_bsp/\libhal_bsp.a(alt_get_fd.o)
                              ../DE1_SoC_SDRAM_Nios_Test_bsp/\libhal_bsp.a(alt_open.o) (alt_get_fd)
../DE1_SoC_SDRAM_Nios_Test_bsp/\libhal_bsp.a(alt_icache_flush.o)
                              ../DE1_SoC_SDRAM_Nios_Test_bsp/\libhal_bsp.a(alt_icache_flush_all.o) (alt_icache_flush)
d:/altera13.1/nios2eds/bin/gnu/h-i686-mingw32/bin/../lib/gcc/nios2-elf/4.7.3/../../../../../H-i686-mingw32/nios2-elf/lib\libc.a(lib_a-atexit.o)
                              ../DE1_SoC_SDRAM_Nios_Test_bsp/\libhal_bsp.a(alt_main.o) (atexit)
d:/altera13.1/nios2eds/bin/gnu/h-i686-mingw32/bin/../lib/gcc/nios2-elf/4.7.3/../../../../../H-i686-mingw32/nios2-elf/lib\libc.a(lib_a-exit.o)
                              ../DE1_SoC_SDRAM_Nios_Test_bsp/\libhal_bsp.a(alt_main.o) (exit)
d:/altera13.1/nios2eds/bin/gnu/h-i686-mingw32/bin/../lib/gcc/nios2-elf/4.7.3/../../../../../H-i686-mingw32/nios2-elf/lib\libc.a(lib_a-memcmp.o)
                              ../DE1_SoC_SDRAM_Nios_Test_bsp/\libhal_bsp.a(alt_find_dev.o) (memcmp)
d:/altera13.1/nios2eds/bin/gnu/h-i686-mingw32/bin/../lib/gcc/nios2-elf/4.7.3/../../../../../H-i686-mingw32/nios2-elf/lib\libc.a(lib_a-__atexit.o)
                              d:/altera13.1/nios2eds/bin/gnu/h-i686-mingw32/bin/../lib/gcc/nios2-elf/4.7.3/../../../../../H-i686-mingw32/nios2-elf/lib\libc.a(lib_a-atexit.o) (__register_exitproc)
d:/altera13.1/nios2eds/bin/gnu/h-i686-mingw32/bin/../lib/gcc/nios2-elf/4.7.3/../../../../../H-i686-mingw32/nios2-elf/lib\libc.a(lib_a-__call_atexit.o)
                              d:/altera13.1/nios2eds/bin/gnu/h-i686-mingw32/bin/../lib/gcc/nios2-elf/4.7.3/../../../../../H-i686-mingw32/nios2-elf/lib\libc.a(lib_a-exit.o) (__call_exitprocs)
../DE1_SoC_SDRAM_Nios_Test_bsp/\libhal_bsp.a(alt_exit.o)
                              d:/altera13.1/nios2eds/bin/gnu/h-i686-mingw32/bin/../lib/gcc/nios2-elf/4.7.3/../../../../../H-i686-mingw32/nios2-elf/lib\libc.a(lib_a-exit.o) (_exit)

Allocating common symbols
Common symbol       size              file

alt_irq             0x100             ../DE1_SoC_SDRAM_Nios_Test_bsp/\libhal_bsp.a(alt_irq_handler.o)
errno               0x4               d:/altera13.1/nios2eds/bin/gnu/h-i686-mingw32/bin/../lib/gcc/nios2-elf/4.7.3/../../../../../H-i686-mingw32/nios2-elf/lib\libc.a(lib_a-int_errno.o)
_atexit0            0x190             d:/altera13.1/nios2eds/bin/gnu/h-i686-mingw32/bin/../lib/gcc/nios2-elf/4.7.3/../../../../../H-i686-mingw32/nios2-elf/lib\libc.a(lib_a-atexit.o)

Memory Configuration

Name             Origin             Length             Attributes
sdram            0x00000000         0x04000000
reset            0x20020000         0x00000020
onchip_memory2   0x20020020         0x0001f3e0
*default*        0x00000000         0xffffffff

Linker script and memory map

LOAD ../DE1_SoC_SDRAM_Nios_Test_bsp//obj/HAL/src/crt0.o
LOAD obj/default/main.o
LOAD obj/default/mem_verify.o
LOAD d:/altera13.1/nios2eds/bin/gnu/h-i686-mingw32/bin/../lib/gcc/nios2-elf/4.7.3/../../../../../H-i686-mingw32/nios2-elf/lib\libstdc++.a
LOAD d:/altera13.1/nios2eds/bin/gnu/h-i686-mingw32/bin/../lib/gcc/nios2-elf/4.7.3/../../../../../H-i686-mingw32/nios2-elf/lib\libm.a
LOAD d:/altera13.1/nios2eds/bin/gnu/h-i686-mingw32/bin/../lib/gcc/nios2-elf/4.7.3\libgcc.a
START GROUP
LOAD d:/altera13.1/nios2eds/bin/gnu/h-i686-mingw32/bin/../lib/gcc/nios2-elf/4.7.3/../../../../../H-i686-mingw32/nios2-elf/lib\libc.a
LOAD d:/altera13.1/nios2eds/bin/gnu/h-i686-mingw32/bin/../lib/gcc/nios2-elf/4.7.3\libgcc.a
LOAD ../DE1_SoC_SDRAM_Nios_Test_bsp/\libhal_bsp.a
END GROUP
LOAD d:/altera13.1/nios2eds/bin/gnu/h-i686-mingw32/bin/../lib/gcc/nios2-elf/4.7.3\libgcc.a
                0x00000000                __alt_mem_sdram = 0x0
                0x20020000                __alt_mem_onchip_memory2 = 0x20020000

.entry          0x20020000       0x20
 *(.entry)
 .entry         0x20020000       0x20 ../DE1_SoC_SDRAM_Nios_Test_bsp//obj/HAL/src/crt0.o
                0x20020000                __reset

.exceptions     0x20020020      0x198
                0x20020020                PROVIDE (__ram_exceptions_start, ABSOLUTE (.))
                0x20020020                . = ALIGN (0x20)
 *(.irq)
 *(.exceptions.entry.label)
 .exceptions.entry.label
                0x20020020        0x0 ../DE1_SoC_SDRAM_Nios_Test_bsp/\libhal_bsp.a(alt_irq_entry.o)
                0x20020020                alt_irq_entry
 .exceptions.entry.label
                0x20020020        0x0 ../DE1_SoC_SDRAM_Nios_Test_bsp/\libhal_bsp.a(alt_exception_entry.o)
                0x20020020                alt_exception
 *(.exceptions.entry.user)
 *(.exceptions.entry.ecc_fatal)
 *(.exceptions.entry)
 .exceptions.entry
                0x20020020       0x54 ../DE1_SoC_SDRAM_Nios_Test_bsp/\libhal_bsp.a(alt_exception_entry.o)
 *(.exceptions.irqtest.user)
 *(.exceptions.irqtest)
 .exceptions.irqtest
                0x20020074       0x10 ../DE1_SoC_SDRAM_Nios_Test_bsp/\libhal_bsp.a(alt_irq_entry.o)
 *(.exceptions.irqhandler.user)
 *(.exceptions.irqhandler)
 .exceptions.irqhandler
                0x20020084        0x4 ../DE1_SoC_SDRAM_Nios_Test_bsp/\libhal_bsp.a(alt_irq_entry.o)
 *(.exceptions.irqreturn.user)
 *(.exceptions.irqreturn)
 .exceptions.irqreturn
                0x20020088        0x4 ../DE1_SoC_SDRAM_Nios_Test_bsp/\libhal_bsp.a(alt_irq_entry.o)
 *(.exceptions.notirq.label)
 .exceptions.notirq.label
                0x2002008c        0x0 ../DE1_SoC_SDRAM_Nios_Test_bsp/\libhal_bsp.a(alt_irq_entry.o)
 *(.exceptions.notirq.user)
 *(.exceptions.notirq)
 .exceptions.notirq
                0x2002008c        0x8 ../DE1_SoC_SDRAM_Nios_Test_bsp/\libhal_bsp.a(alt_exception_entry.o)
 *(.exceptions.soft.user)
 *(.exceptions.soft)
 *(.exceptions.unknown.user)
 *(.exceptions.unknown)
 .exceptions.unknown
                0x20020094        0x4 ../DE1_SoC_SDRAM_Nios_Test_bsp/\libhal_bsp.a(alt_exception_entry.o)
 *(.exceptions.exit.label)
 .exceptions.exit.label
                0x20020098        0x0 ../DE1_SoC_SDRAM_Nios_Test_bsp/\libhal_bsp.a(alt_irq_entry.o)
 .exceptions.exit.label
                0x20020098        0x0 ../DE1_SoC_SDRAM_Nios_Test_bsp/\libhal_bsp.a(alt_exception_entry.o)
 *(.exceptions.exit.user)
 *(.exceptions.exit)
 .exceptions.exit
                0x20020098       0x54 ../DE1_SoC_SDRAM_Nios_Test_bsp/\libhal_bsp.a(alt_exception_entry.o)
 *(.exceptions)
 .exceptions    0x200200ec       0xcc ../DE1_SoC_SDRAM_Nios_Test_bsp/\libhal_bsp.a(alt_irq_handler.o)
                0x200200ec                alt_irq_handler
                0x200201b8                PROVIDE (__ram_exceptions_end, ABSOLUTE (.))
                0x20020020                PROVIDE (__flash_exceptions_start, LOADADDR (.exceptions))

.text           0x200201b8     0xc92c
                0x200201b8                PROVIDE (stext, ABSOLUTE (.))
 *(.interp)
 *(.hash)
 *(.dynsym)
 *(.dynstr)
 *(.gnu.version)
 *(.gnu.version_d)
 *(.gnu.version_r)
 *(.rel.init)
 *(.rela.init)
 *(.rel.text .rel.text.* .rel.gnu.linkonce.t.*)
 *(.rela.text .rela.text.* .rela.gnu.linkonce.t.*)
 *(.rel.fini)
 *(.rela.fini)
 *(.rel.rodata .rel.rodata.* .rel.gnu.linkonce.r.*)
 *(.rela.rodata .rela.rodata.* .rela.gnu.linkonce.r.*)
 *(.rel.data .rel.data.* .rel.gnu.linkonce.d.*)
 *(.rela.data .rela.data.* .rela.gnu.linkonce.d.*)
 *(.rel.tdata .rel.tdata.* .rel.gnu.linkonce.td.*)
 *(.rela.tdata .rela.tdata.* .rela.gnu.linkonce.td.*)
 *(.rel.tbss .rel.tbss.* .rel.gnu.linkonce.tb.*)
 *(.rela.tbss .rela.tbss.* .rela.gnu.linkonce.tb.*)
 *(.rel.ctors)
 *(.rela.ctors)
 *(.rel.dtors)
 *(.rela.dtors)
 *(.rel.got)
 *(.rela.got)
 *(.rel.sdata .rel.sdata.* .rel.gnu.linkonce.s.*)
 *(.rela.sdata .rela.sdata.* .rela.gnu.linkonce.s.*)
 *(.rel.sbss .rel.sbss.* .rel.gnu.linkonce.sb.*)
 *(.rela.sbss .rela.sbss.* .rela.gnu.linkonce.sb.*)
 *(.rel.sdata2 .rel.sdata2.* .rel.gnu.linkonce.s2.*)
 *(.rela.sdata2 .rela.sdata2.* .rela.gnu.linkonce.s2.*)
 *(.rel.sbss2 .rel.sbss2.* .rel.gnu.linkonce.sb2.*)
 *(.rela.sbss2 .rela.sbss2.* .rela.gnu.linkonce.sb2.*)
 *(.rel.bss .rel.bss.* .rel.gnu.linkonce.b.*)
 *(.rela.bss .rela.bss.* .rela.gnu.linkonce.b.*)
 *(.rel.plt)
 *(.rela.plt)
 *(.rel.dyn)
 *(.init)
 *(.plt)
 *(.text .stub .text.* .gnu.linkonce.t.*)
 .text          0x200201b8       0x4c ../DE1_SoC_SDRAM_Nios_Test_bsp//obj/HAL/src/crt0.o
                0x200201b8                _start
 .text          0x20020204      0x1d8 obj/default/main.o
                0x20020204                main
 .text          0x200203dc      0x724 obj/default/mem_verify.o
                0x200203dc                TMEM_Verify
                0x200208c8                TMEM_QuickVerify
 .text          0x20020b00      0x130 d:/altera13.1/nios2eds/bin/gnu/h-i686-mingw32/bin/../lib/gcc/nios2-elf/4.7.3\libgcc.a(lib2-divmod.o)
                0x20020b74                __divsi3
                0x20020bc4                __modsi3
                0x20020c20                __udivsi3
                0x20020c28                __umodsi3
 .text          0x20020c30       0xf8 d:/altera13.1/nios2eds/bin/gnu/h-i686-mingw32/bin/../lib/gcc/nios2-elf/4.7.3/../../../../../H-i686-mingw32/nios2-elf/lib\libc.a(lib_a-memcpy.o)
                0x20020c30                memcpy
 .text          0x20020d28       0x68 d:/altera13.1/nios2eds/bin/gnu/h-i686-mingw32/bin/../lib/gcc/nios2-elf/4.7.3/../../../../../H-i686-mingw32/nios2-elf/lib\libc.a(lib_a-printf.o)
                0x20020d28                _printf_r
                0x20020d54                printf
 .text          0x20020d90       0x24 d:/altera13.1/nios2eds/bin/gnu/h-i686-mingw32/bin/../lib/gcc/nios2-elf/4.7.3/../../../../../H-i686-mingw32/nios2-elf/lib\libc.a(lib_a-putchar.o)
                0x20020d90                _putchar_r
                0x20020d98                putchar
 .text          0x20020db4       0x98 d:/altera13.1/nios2eds/bin/gnu/h-i686-mingw32/bin/../lib/gcc/nios2-elf/4.7.3/../../../../../H-i686-mingw32/nios2-elf/lib\libc.a(lib_a-puts.o)
                0x20020db4                _puts_r
                0x20020e38                puts
 .text          0x20020e4c       0x7c d:/altera13.1/nios2eds/bin/gnu/h-i686-mingw32/bin/../lib/gcc/nios2-elf/4.7.3/../../../../../H-i686-mingw32/nios2-elf/lib\libc.a(lib_a-rand.o)
                0x20020e4c                srand
                0x20020e64                rand
 .text          0x20020ec8       0x8c d:/altera13.1/nios2eds/bin/gnu/h-i686-mingw32/bin/../lib/gcc/nios2-elf/4.7.3/../../../../../H-i686-mingw32/nios2-elf/lib\libc.a(lib_a-strlen.o)
                0x20020ec8                strlen
 .text          0x20020f54     0x1e50 d:/altera13.1/nios2eds/bin/gnu/h-i686-mingw32/bin/../lib/gcc/nios2-elf/4.7.3/../../../../../H-i686-mingw32/nios2-elf/lib\libc.a(lib_a-vfprintf.o)
                0x20020f88                ___vfprintf_internal_r
                0x20022d80                __vfprintf_internal
 .text          0x20022da4      0x174 d:/altera13.1/nios2eds/bin/gnu/h-i686-mingw32/bin/../lib/gcc/nios2-elf/4.7.3/../../../../../H-i686-mingw32/nios2-elf/lib\libc.a(lib_a-wsetup.o)
                0x20022da4                __swsetup_r
 .text          0x20022f18     0x1824 d:/altera13.1/nios2eds/bin/gnu/h-i686-mingw32/bin/../lib/gcc/nios2-elf/4.7.3/../../../../../H-i686-mingw32/nios2-elf/lib\libc.a(lib_a-dtoa.o)
                0x20023120                _dtoa_r
 .text          0x2002473c      0x218 d:/altera13.1/nios2eds/bin/gnu/h-i686-mingw32/bin/../lib/gcc/nios2-elf/4.7.3/../../../../../H-i686-mingw32/nios2-elf/lib\libc.a(lib_a-fflush.o)
                0x2002473c                _fflush_r
                0x20024924                fflush
 .text          0x20024954      0x2d8 d:/altera13.1/nios2eds/bin/gnu/h-i686-mingw32/bin/../lib/gcc/nios2-elf/4.7.3/../../../../../H-i686-mingw32/nios2-elf/lib\libc.a(lib_a-findfp.o)
                0x20024964                _cleanup_r
                0x20024970                __sfmoreglue
                0x200249d4                _cleanup
                0x200249e4                __sinit
                0x20024af0                __sfp
                0x20024bec                __sfp_lock_acquire
                0x20024bf0                __sfp_lock_release
                0x20024bf4                __sinit_lock_acquire
                0x20024bf8                __sinit_lock_release
                0x20024bfc                __fp_lock_all
                0x20024c14                __fp_unlock_all
 .text          0x20024c2c      0x40c d:/altera13.1/nios2eds/bin/gnu/h-i686-mingw32/bin/../lib/gcc/nios2-elf/4.7.3/../../../../../H-i686-mingw32/nios2-elf/lib\libc.a(lib_a-freer.o)
                0x20024c2c                _malloc_trim_r
                0x20024d68                _free_r
 .text          0x20025038      0x4e4 d:/altera13.1/nios2eds/bin/gnu/h-i686-mingw32/bin/../lib/gcc/nios2-elf/4.7.3/../../../../../H-i686-mingw32/nios2-elf/lib\libc.a(lib_a-fvwrite.o)
                0x20025038                __sfvwrite_r
 .text          0x2002551c      0x160 d:/altera13.1/nios2eds/bin/gnu/h-i686-mingw32/bin/../lib/gcc/nios2-elf/4.7.3/../../../../../H-i686-mingw32/nios2-elf/lib\libc.a(lib_a-fwalk.o)
                0x2002551c                _fwalk
                0x200255c4                _fwalk_reent
 .text          0x2002567c        0x0 d:/altera13.1/nios2eds/bin/gnu/h-i686-mingw32/bin/../lib/gcc/nios2-elf/4.7.3/../../../../../H-i686-mingw32/nios2-elf/lib\libc.a(lib_a-impure.o)
 .text          0x2002567c       0xdc d:/altera13.1/nios2eds/bin/gnu/h-i686-mingw32/bin/../lib/gcc/nios2-elf/4.7.3/../../../../../H-i686-mingw32/nios2-elf/lib\libc.a(lib_a-locale.o)
                0x2002567c                _setlocale_r
                0x20025718                __locale_charset
                0x20025724                _localeconv_r
                0x20025730                setlocale
                0x2002574c                localeconv
 .text          0x20025758      0x1a8 d:/altera13.1/nios2eds/bin/gnu/h-i686-mingw32/bin/../lib/gcc/nios2-elf/4.7.3/../../../../../H-i686-mingw32/nios2-elf/lib\libc.a(lib_a-makebuf.o)
                0x20025758                __smakebuf_r
 .text          0x20025900      0x784 d:/altera13.1/nios2eds/bin/gnu/h-i686-mingw32/bin/../lib/gcc/nios2-elf/4.7.3/../../../../../H-i686-mingw32/nios2-elf/lib\libc.a(lib_a-mallocr.o)
                0x20025900                _malloc_r
 .text          0x20026084       0xf8 d:/altera13.1/nios2eds/bin/gnu/h-i686-mingw32/bin/../lib/gcc/nios2-elf/4.7.3/../../../../../H-i686-mingw32/nios2-elf/lib\libc.a(lib_a-memchr.o)
                0x20026084                memchr
 .text          0x2002617c      0x128 d:/altera13.1/nios2eds/bin/gnu/h-i686-mingw32/bin/../lib/gcc/nios2-elf/4.7.3/../../../../../H-i686-mingw32/nios2-elf/lib\libc.a(lib_a-memmove.o)
                0x2002617c                memmove
 .text          0x200262a4       0xdc d:/altera13.1/nios2eds/bin/gnu/h-i686-mingw32/bin/../lib/gcc/nios2-elf/4.7.3/../../../../../H-i686-mingw32/nios2-elf/lib\libc.a(lib_a-memset.o)
                0x200262a4                memset
 .text          0x20026380      0xfa8 d:/altera13.1/nios2eds/bin/gnu/h-i686-mingw32/bin/../lib/gcc/nios2-elf/4.7.3/../../../../../H-i686-mingw32/nios2-elf/lib\libc.a(lib_a-mprec.o)
                0x20026380                _Balloc
                0x20026428                _Bfree
                0x20026450                __multadd
                0x20026564                __s2b
                0x20026668                __hi0bits
                0x200266d0                __lo0bits
                0x20026780                __i2b
                0x200267bc                __multiply
                0x2002699c                __pow5mult
                0x20026ac8                __lshift
                0x20026c24                __mcmp
                0x20026c7c                __mdiff
                0x20026e24                __ulp
                0x20026e84                __b2d
                0x20026fcc                __d2b
                0x20027110                __ratio
                0x200271b4                _mprec_log10
                0x20027228                __copybits
                0x200272a4                __any_on
 .text          0x20027328      0x1ac d:/altera13.1/nios2eds/bin/gnu/h-i686-mingw32/bin/../lib/gcc/nios2-elf/4.7.3/../../../../../H-i686-mingw32/nios2-elf/lib\libc.a(lib_a-putc.o)
                0x20027328                _putc_r
                0x200273e4                putc
 .text          0x200274d4      0x5fc d:/altera13.1/nios2eds/bin/gnu/h-i686-mingw32/bin/../lib/gcc/nios2-elf/4.7.3/../../../../../H-i686-mingw32/nios2-elf/lib\libc.a(lib_a-reallocr.o)
                0x200274d4                _realloc_r
 .text          0x20027ad0       0x38 d:/altera13.1/nios2eds/bin/gnu/h-i686-mingw32/bin/../lib/gcc/nios2-elf/4.7.3/../../../../../H-i686-mingw32/nios2-elf/lib\libc.a(lib_a-s_isinfd.o)
                0x20027ad0                __isinfd
 .text          0x20027b08       0x2c d:/altera13.1/nios2eds/bin/gnu/h-i686-mingw32/bin/../lib/gcc/nios2-elf/4.7.3/../../../../../H-i686-mingw32/nios2-elf/lib\libc.a(lib_a-s_isnand.o)
                0x20027b08                __isnand
 .text          0x20027b34       0x64 d:/altera13.1/nios2eds/bin/gnu/h-i686-mingw32/bin/../lib/gcc/nios2-elf/4.7.3/../../../../../H-i686-mingw32/nios2-elf/lib\libc.a(lib_a-sbrkr.o)
                0x20027b34                _sbrk_r
 .text          0x20027b98      0x140 d:/altera13.1/nios2eds/bin/gnu/h-i686-mingw32/bin/../lib/gcc/nios2-elf/4.7.3/../../../../../H-i686-mingw32/nios2-elf/lib\libc.a(lib_a-stdio.o)
                0x20027b98                __sread
                0x20027bec                __swrite
                0x20027c74                __sseek
                0x20027cd0                __sclose
 .text          0x20027cd8       0xa4 d:/altera13.1/nios2eds/bin/gnu/h-i686-mingw32/bin/../lib/gcc/nios2-elf/4.7.3/../../../../../H-i686-mingw32/nios2-elf/lib\libc.a(lib_a-strcmp.o)
                0x20027cd8                strcmp
 .text          0x20027d7c      0x158 d:/altera13.1/nios2eds/bin/gnu/h-i686-mingw32/bin/../lib/gcc/nios2-elf/4.7.3/../../../../../H-i686-mingw32/nios2-elf/lib\libc.a(lib_a-wbuf.o)
                0x20027d7c                __swbuf_r
                0x20027eb8                __swbuf
 .text          0x20027ed4       0x6c d:/altera13.1/nios2eds/bin/gnu/h-i686-mingw32/bin/../lib/gcc/nios2-elf/4.7.3/../../../../../H-i686-mingw32/nios2-elf/lib\libc.a(lib_a-writer.o)
                0x20027ed4                _write_r
 .text          0x20027f40       0xbc d:/altera13.1/nios2eds/bin/gnu/h-i686-mingw32/bin/../lib/gcc/nios2-elf/4.7.3/../../../../../H-i686-mingw32/nios2-elf/lib\libc.a(lib_a-callocr.o)
                0x20027f40                _calloc_r
 .text          0x20027ffc       0x64 d:/altera13.1/nios2eds/bin/gnu/h-i686-mingw32/bin/../lib/gcc/nios2-elf/4.7.3/../../../../../H-i686-mingw32/nios2-elf/lib\libc.a(lib_a-closer.o)
                0x20027ffc                _close_r
 .text          0x20028060      0x150 d:/altera13.1/nios2eds/bin/gnu/h-i686-mingw32/bin/../lib/gcc/nios2-elf/4.7.3/../../../../../H-i686-mingw32/nios2-elf/lib\libc.a(lib_a-fclose.o)
                0x20028060                _fclose_r
                0x2002819c                fclose
 .text          0x200281b0       0x68 d:/altera13.1/nios2eds/bin/gnu/h-i686-mingw32/bin/../lib/gcc/nios2-elf/4.7.3/../../../../../H-i686-mingw32/nios2-elf/lib\libc.a(lib_a-fstatr.o)
                0x200281b0                _fstat_r
 .text          0x20028218        0x0 d:/altera13.1/nios2eds/bin/gnu/h-i686-mingw32/bin/../lib/gcc/nios2-elf/4.7.3/../../../../../H-i686-mingw32/nios2-elf/lib\libc.a(lib_a-int_errno.o)
 .text          0x20028218       0x64 d:/altera13.1/nios2eds/bin/gnu/h-i686-mingw32/bin/../lib/gcc/nios2-elf/4.7.3/../../../../../H-i686-mingw32/nios2-elf/lib\libc.a(lib_a-isattyr.o)
                0x20028218                _isatty_r
 .text          0x2002827c       0x6c d:/altera13.1/nios2eds/bin/gnu/h-i686-mingw32/bin/../lib/gcc/nios2-elf/4.7.3/../../../../../H-i686-mingw32/nios2-elf/lib\libc.a(lib_a-lseekr.o)
                0x2002827c                _lseek_r
 .text          0x200282e8       0x6c d:/altera13.1/nios2eds/bin/gnu/h-i686-mingw32/bin/../lib/gcc/nios2-elf/4.7.3/../../../../../H-i686-mingw32/nios2-elf/lib\libc.a(lib_a-readr.o)
                0x200282e8                _read_r
 .text          0x20028354       0x60 d:/altera13.1/nios2eds/bin/gnu/h-i686-mingw32/bin/../lib/gcc/nios2-elf/4.7.3\libgcc.a(_muldi3.o)
                0x20028354                __muldi3
 .text          0x200283b4      0x5c8 d:/altera13.1/nios2eds/bin/gnu/h-i686-mingw32/bin/../lib/gcc/nios2-elf/4.7.3\libgcc.a(_udivdi3.o)
                0x200283b4                __udivdi3
 .text          0x2002897c      0x58c d:/altera13.1/nios2eds/bin/gnu/h-i686-mingw32/bin/../lib/gcc/nios2-elf/4.7.3\libgcc.a(_umoddi3.o)
                0x2002897c                __umoddi3
 .text          0x20028f08      0x408 d:/altera13.1/nios2eds/bin/gnu/h-i686-mingw32/bin/../lib/gcc/nios2-elf/4.7.3\libgcc.a(_addsub_df.o)
                0x2002925c                __adddf3
                0x200292b0                __subdf3
 .text          0x20029310      0x2e4 d:/altera13.1/nios2eds/bin/gnu/h-i686-mingw32/bin/../lib/gcc/nios2-elf/4.7.3\libgcc.a(_mul_df.o)
                0x20029310                __muldf3
 .text          0x200295f4      0x1b4 d:/altera13.1/nios2eds/bin/gnu/h-i686-mingw32/bin/../lib/gcc/nios2-elf/4.7.3\libgcc.a(_div_df.o)
                0x200295f4                __divdf3
 .text          0x200297a8       0x5c d:/altera13.1/nios2eds/bin/gnu/h-i686-mingw32/bin/../lib/gcc/nios2-elf/4.7.3\libgcc.a(_eq_df.o)
                0x200297a8                __eqdf2
 .text          0x20029804       0x5c d:/altera13.1/nios2eds/bin/gnu/h-i686-mingw32/bin/../lib/gcc/nios2-elf/4.7.3\libgcc.a(_ne_df.o)
                0x20029804                __nedf2
 .text          0x20029860       0x64 d:/altera13.1/nios2eds/bin/gnu/h-i686-mingw32/bin/../lib/gcc/nios2-elf/4.7.3\libgcc.a(_gt_df.o)
                0x20029860                __gtdf2
 .text          0x200298c4       0x64 d:/altera13.1/nios2eds/bin/gnu/h-i686-mingw32/bin/../lib/gcc/nios2-elf/4.7.3\libgcc.a(_ge_df.o)
                0x200298c4                __gedf2
 .text          0x20029928       0x5c d:/altera13.1/nios2eds/bin/gnu/h-i686-mingw32/bin/../lib/gcc/nios2-elf/4.7.3\libgcc.a(_lt_df.o)
                0x20029928                __ltdf2
 .text          0x20029984       0xd4 d:/altera13.1/nios2eds/bin/gnu/h-i686-mingw32/bin/../lib/gcc/nios2-elf/4.7.3\libgcc.a(_si_to_df.o)
                0x20029984                __floatsidf
 .text          0x20029a58       0xd4 d:/altera13.1/nios2eds/bin/gnu/h-i686-mingw32/bin/../lib/gcc/nios2-elf/4.7.3\libgcc.a(_df_to_si.o)
                0x20029a58                __fixdfsi
 .text          0x20029b2c        0x0 d:/altera13.1/nios2eds/bin/gnu/h-i686-mingw32/bin/../lib/gcc/nios2-elf/4.7.3\libgcc.a(_thenan_df.o)
 .text          0x20029b2c      0x11c d:/altera13.1/nios2eds/bin/gnu/h-i686-mingw32/bin/../lib/gcc/nios2-elf/4.7.3\libgcc.a(_usi_to_df.o)
                0x20029b2c                __floatunsidf
 .text          0x20029c48        0x0 d:/altera13.1/nios2eds/bin/gnu/h-i686-mingw32/bin/../lib/gcc/nios2-elf/4.7.3\libgcc.a(_clz.o)
 .text          0x20029c48       0xac d:/altera13.1/nios2eds/bin/gnu/h-i686-mingw32/bin/../lib/gcc/nios2-elf/4.7.3\libgcc.a(_clzsi2.o)
                0x20029c48                __clzsi2
 .text          0x20029cf4      0x224 d:/altera13.1/nios2eds/bin/gnu/h-i686-mingw32/bin/../lib/gcc/nios2-elf/4.7.3\libgcc.a(_pack_df.o)
                0x20029cf4                __pack_d
 .text          0x20029f18      0x104 d:/altera13.1/nios2eds/bin/gnu/h-i686-mingw32/bin/../lib/gcc/nios2-elf/4.7.3\libgcc.a(_unpack_df.o)
                0x20029f18                __unpack_d
 .text          0x2002a01c       0xd0 d:/altera13.1/nios2eds/bin/gnu/h-i686-mingw32/bin/../lib/gcc/nios2-elf/4.7.3\libgcc.a(_fpcmp_parts_df.o)
                0x2002a01c                __fpcmp_parts_d
 .text          0x2002a0ec       0x44 d:/altera13.1/nios2eds/bin/gnu/h-i686-mingw32/bin/../lib/gcc/nios2-elf/4.7.3\libgcc.a(_lshrdi3.o)
                0x2002a0ec                __lshrdi3
 .text          0x2002a130       0x44 d:/altera13.1/nios2eds/bin/gnu/h-i686-mingw32/bin/../lib/gcc/nios2-elf/4.7.3\libgcc.a(_ashldi3.o)
                0x2002a130                __ashldi3
 .text          0x2002a174      0x118 ../DE1_SoC_SDRAM_Nios_Test_bsp/\libhal_bsp.a(alt_close.o)
                0x2002a1c4                close
 .text          0x2002a28c       0x44 ../DE1_SoC_SDRAM_Nios_Test_bsp/\libhal_bsp.a(alt_dcache_flush_all.o)
                0x2002a28c                alt_dcache_flush_all
 .text          0x2002a2d0       0x2c ../DE1_SoC_SDRAM_Nios_Test_bsp/\libhal_bsp.a(alt_dev.o)
 .text          0x2002a2fc        0x0 ../DE1_SoC_SDRAM_Nios_Test_bsp/\libhal_bsp.a(alt_errno.o)
 .text          0x2002a2fc       0xfc ../DE1_SoC_SDRAM_Nios_Test_bsp/\libhal_bsp.a(alt_fstat.o)
                0x2002a34c                fstat
 .text          0x2002a3f8       0xf0 ../DE1_SoC_SDRAM_Nios_Test_bsp/\libhal_bsp.a(alt_isatty.o)
                0x2002a448                isatty
 .text          0x2002a4e8       0xec ../DE1_SoC_SDRAM_Nios_Test_bsp/\libhal_bsp.a(alt_load.o)
                0x2002a554                alt_load
 .text          0x2002a5d4      0x120 ../DE1_SoC_SDRAM_Nios_Test_bsp/\libhal_bsp.a(alt_lseek.o)
                0x2002a624                lseek
 .text          0x2002a6f4       0x78 ../DE1_SoC_SDRAM_Nios_Test_bsp/\libhal_bsp.a(alt_main.o)
                0x2002a6f4                alt_main
 .text          0x2002a76c       0x40 ../DE1_SoC_SDRAM_Nios_Test_bsp/\libhal_bsp.a(alt_malloc_lock.o)
                0x2002a76c                __malloc_lock
                0x2002a78c                __malloc_unlock
 .text          0x2002a7ac      0x140 ../DE1_SoC_SDRAM_Nios_Test_bsp/\libhal_bsp.a(alt_read.o)
                0x2002a7fc                read
 .text          0x2002a8ec       0x60 ../DE1_SoC_SDRAM_Nios_Test_bsp/\libhal_bsp.a(alt_release_fd.o)
                0x2002a8ec                alt_release_fd
 .text          0x2002a94c       0xb0 ../DE1_SoC_SDRAM_Nios_Test_bsp/\libhal_bsp.a(alt_sbrk.o)
                0x2002a94c                sbrk
 .text          0x2002a9fc      0x19c ../DE1_SoC_SDRAM_Nios_Test_bsp/\libhal_bsp.a(alt_tick.o)
                0x2002a9fc                alt_alarm_stop
                0x2002aa94                alt_tick
 .text          0x2002ab98       0x30 ../DE1_SoC_SDRAM_Nios_Test_bsp/\libhal_bsp.a(alt_usleep.o)
                0x2002ab98                usleep
 .text          0x2002abc8      0x13c ../DE1_SoC_SDRAM_Nios_Test_bsp/\libhal_bsp.a(alt_write.o)
                0x2002ac18                write
 .text          0x2002ad04       0xcc ../DE1_SoC_SDRAM_Nios_Test_bsp/\libhal_bsp.a(alt_sys_init.o)
                0x2002ad3c                alt_irq_init
                0x2002ad70                alt_sys_init
 .text          0x2002add0      0x164 ../DE1_SoC_SDRAM_Nios_Test_bsp/\libhal_bsp.a(altera_avalon_jtag_uart_fd.o)
                0x2002add0                altera_avalon_jtag_uart_read_fd
                0x2002ae30                altera_avalon_jtag_uart_write_fd
                0x2002ae90                altera_avalon_jtag_uart_close_fd
                0x2002aee0                altera_avalon_jtag_uart_ioctl_fd
 .text          0x2002af34      0x3d0 ../DE1_SoC_SDRAM_Nios_Test_bsp/\libhal_bsp.a(altera_avalon_jtag_uart_init.o)
                0x2002af34                altera_avalon_jtag_uart_init
                0x2002b29c                altera_avalon_jtag_uart_close
 .text          0x2002b304       0xf4 ../DE1_SoC_SDRAM_Nios_Test_bsp/\libhal_bsp.a(altera_avalon_jtag_uart_ioctl.o)
                0x2002b304                altera_avalon_jtag_uart_ioctl
 .text          0x2002b3f8      0x218 ../DE1_SoC_SDRAM_Nios_Test_bsp/\libhal_bsp.a(altera_avalon_jtag_uart_read.o)
                0x2002b3f8                altera_avalon_jtag_uart_read
 .text          0x2002b610      0x224 ../DE1_SoC_SDRAM_Nios_Test_bsp/\libhal_bsp.a(altera_avalon_jtag_uart_write.o)
                0x2002b610                altera_avalon_jtag_uart_write
 .text          0x2002b834       0xfc ../DE1_SoC_SDRAM_Nios_Test_bsp/\libhal_bsp.a(altera_avalon_timer_sc.o)
                0x2002b8a8                alt_avalon_timer_sc_init
 .text          0x2002b930      0x140 ../DE1_SoC_SDRAM_Nios_Test_bsp/\libhal_bsp.a(alt_alarm_start.o)
                0x2002b930                alt_alarm_start
 .text          0x2002ba70      0x154 ../DE1_SoC_SDRAM_Nios_Test_bsp/\libhal_bsp.a(alt_busy_sleep.o)
                0x2002ba70                alt_busy_sleep
 .text          0x2002bbc4       0xf0 ../DE1_SoC_SDRAM_Nios_Test_bsp/\libhal_bsp.a(alt_dev_llist_insert.o)
                0x2002bc14                alt_dev_llist_insert
 .text          0x2002bcb4       0x5c ../DE1_SoC_SDRAM_Nios_Test_bsp/\libhal_bsp.a(alt_do_ctors.o)
                0x2002bcb4                _do_ctors
 .text          0x2002bd10       0x5c ../DE1_SoC_SDRAM_Nios_Test_bsp/\libhal_bsp.a(alt_do_dtors.o)
                0x2002bd10                _do_dtors
 .text          0x2002bd6c       0x30 ../DE1_SoC_SDRAM_Nios_Test_bsp/\libhal_bsp.a(alt_icache_flush_all.o)
                0x2002bd6c                alt_icache_flush_all
 .text          0x2002bd9c      0x1d8 ../DE1_SoC_SDRAM_Nios_Test_bsp/\libhal_bsp.a(alt_iic.o)
                0x2002bd9c                alt_ic_isr_register
                0x2002bdec                alt_ic_irq_enable
                0x2002be88                alt_ic_irq_disable
                0x2002bf28                alt_ic_irq_enabled
 .text          0x2002bf74       0xf0 ../DE1_SoC_SDRAM_Nios_Test_bsp/\libhal_bsp.a(alt_iic_isr_register.o)
                0x2002bf74                alt_iic_isr_register
 .text          0x2002c064      0x138 ../DE1_SoC_SDRAM_Nios_Test_bsp/\libhal_bsp.a(alt_io_redirect.o)
                0x2002c124                alt_io_redirect
 .text          0x2002c19c        0x0 ../DE1_SoC_SDRAM_Nios_Test_bsp/\libhal_bsp.a(alt_irq_entry.o)
 .text          0x2002c19c        0x0 ../DE1_SoC_SDRAM_Nios_Test_bsp/\libhal_bsp.a(alt_irq_handler.o)
 .text          0x2002c19c        0x0 ../DE1_SoC_SDRAM_Nios_Test_bsp/\libhal_bsp.a(alt_irq_vars.o)
 .text          0x2002c19c      0x270 ../DE1_SoC_SDRAM_Nios_Test_bsp/\libhal_bsp.a(alt_open.o)
                0x2002c2b8                open
 .text          0x2002c40c       0x20 ../DE1_SoC_SDRAM_Nios_Test_bsp/\libhal_bsp.a(altera_nios2_qsys_irq.o)
                0x2002c40c                altera_nios2_qsys_irq_init
 .text          0x2002c42c        0x0 ../DE1_SoC_SDRAM_Nios_Test_bsp/\libhal_bsp.a(alt_exception_entry.o)
 .text          0x2002c42c       0x90 ../DE1_SoC_SDRAM_Nios_Test_bsp/\libhal_bsp.a(alt_find_dev.o)
                0x2002c42c                alt_find_dev
 .text          0x2002c4bc      0x114 ../DE1_SoC_SDRAM_Nios_Test_bsp/\libhal_bsp.a(alt_find_file.o)
                0x2002c4bc                alt_find_file
 .text          0x2002c5d0       0xb4 ../DE1_SoC_SDRAM_Nios_Test_bsp/\libhal_bsp.a(alt_get_fd.o)
                0x2002c5d0                alt_get_fd
 .text          0x2002c684       0x8c ../DE1_SoC_SDRAM_Nios_Test_bsp/\libhal_bsp.a(alt_icache_flush.o)
                0x2002c684                alt_icache_flush
 .text          0x2002c710       0x14 d:/altera13.1/nios2eds/bin/gnu/h-i686-mingw32/bin/../lib/gcc/nios2-elf/4.7.3/../../../../../H-i686-mingw32/nios2-elf/lib\libc.a(lib_a-atexit.o)
                0x2002c710                atexit
 .text          0x2002c724       0x38 d:/altera13.1/nios2eds/bin/gnu/h-i686-mingw32/bin/../lib/gcc/nios2-elf/4.7.3/../../../../../H-i686-mingw32/nios2-elf/lib\libc.a(lib_a-exit.o)
                0x2002c724                exit
 .text          0x2002c75c       0x7c d:/altera13.1/nios2eds/bin/gnu/h-i686-mingw32/bin/../lib/gcc/nios2-elf/4.7.3/../../../../../H-i686-mingw32/nios2-elf/lib\libc.a(lib_a-memcmp.o)
                0x2002c75c                memcmp
 .text          0x2002c7d8      0x130 d:/altera13.1/nios2eds/bin/gnu/h-i686-mingw32/bin/../lib/gcc/nios2-elf/4.7.3/../../../../../H-i686-mingw32/nios2-elf/lib\libc.a(lib_a-__atexit.o)
                0x2002c7d8                __register_exitproc
 .text          0x2002c908      0x1a0 d:/altera13.1/nios2eds/bin/gnu/h-i686-mingw32/bin/../lib/gcc/nios2-elf/4.7.3/../../../../../H-i686-mingw32/nios2-elf/lib\libc.a(lib_a-__call_atexit.o)
                0x2002c908                __call_exitprocs
 .text          0x2002caa8       0x3c ../DE1_SoC_SDRAM_Nios_Test_bsp/\libhal_bsp.a(alt_exit.o)
                0x2002caa8                _exit
 *(.gnu.warning.*)
 *(.fini)
                0x2002cae4                PROVIDE (__etext, ABSOLUTE (.))
                0x2002cae4                PROVIDE (_etext, ABSOLUTE (.))
                0x2002cae4                PROVIDE (etext, ABSOLUTE (.))
 *(.eh_frame_hdr)
                0x2002cae4                . = ALIGN (0x4)
                0x2002cae4                PROVIDE (__preinit_array_start, ABSOLUTE (.))
 *(.preinit_array)
                0x2002cae4                PROVIDE (__preinit_array_end, ABSOLUTE (.))
                0x2002cae4                PROVIDE (__init_array_start, ABSOLUTE (.))
 *(.init_array)
                0x2002cae4                PROVIDE (__init_array_end, ABSOLUTE (.))
                0x2002cae4                PROVIDE (__fini_array_start, ABSOLUTE (.))
 *(.fini_array)
                0x2002cae4                PROVIDE (__fini_array_end, ABSOLUTE (.))
 *(.eh_frame)
 *(.gcc_except_table .gcc_except_table.*)
 *(.dynamic)
                0x2002cae4                PROVIDE (__CTOR_LIST__, ABSOLUTE (.))
 *(.ctors)
 *(SORT(.ctors.*))
                0x2002cae4                PROVIDE (__CTOR_END__, ABSOLUTE (.))
                0x2002cae4                PROVIDE (__DTOR_LIST__, ABSOLUTE (.))
 *(.dtors)
 *(SORT(.dtors.*))
                0x2002cae4                PROVIDE (__DTOR_END__, ABSOLUTE (.))
 *(.jcr)
                0x2002cae4                . = ALIGN (0x4)

.rodata         0x2002cae4      0x46c
                0x2002cae4                PROVIDE (__ram_rodata_start, ABSOLUTE (.))
                0x2002cae4                . = ALIGN (0x4)
 *(.rodata .rodata.* .gnu.linkonce.r.*)
 .rodata        0x2002cae4       0xf8 obj/default/main.o
 .rodata        0x2002cbdc       0x54 obj/default/mem_verify.o
 .rodata.str1.4
                0x2002cc30        0x2 d:/altera13.1/nios2eds/bin/gnu/h-i686-mingw32/bin/../lib/gcc/nios2-elf/4.7.3/../../../../../H-i686-mingw32/nios2-elf/lib\libc.a(lib_a-puts.o)
                                  0x4 (size before relaxing)
 *fill*         0x2002cc32        0x2 
 .rodata.str1.4
                0x2002cc34       0x42 d:/altera13.1/nios2eds/bin/gnu/h-i686-mingw32/bin/../lib/gcc/nios2-elf/4.7.3/../../../../../H-i686-mingw32/nios2-elf/lib\libc.a(lib_a-vfprintf.o)
                                 0x44 (size before relaxing)
 .rodata        0x2002cc76       0x20 d:/altera13.1/nios2eds/bin/gnu/h-i686-mingw32/bin/../lib/gcc/nios2-elf/4.7.3/../../../../../H-i686-mingw32/nios2-elf/lib\libc.a(lib_a-vfprintf.o)
 *fill*         0x2002cc96        0x2 
 .rodata.str1.4
                0x2002cc98       0x10 d:/altera13.1/nios2eds/bin/gnu/h-i686-mingw32/bin/../lib/gcc/nios2-elf/4.7.3/../../../../../H-i686-mingw32/nios2-elf/lib\libc.a(lib_a-dtoa.o)
                                 0x14 (size before relaxing)
 .rodata.str1.4
                0x2002cca8        0x2 d:/altera13.1/nios2eds/bin/gnu/h-i686-mingw32/bin/../lib/gcc/nios2-elf/4.7.3/../../../../../H-i686-mingw32/nios2-elf/lib\libc.a(lib_a-impure.o)
                                  0x4 (size before relaxing)
 *fill*         0x2002ccaa        0x2 
 .rodata.str1.4
                0x2002ccac       0x10 d:/altera13.1/nios2eds/bin/gnu/h-i686-mingw32/bin/../lib/gcc/nios2-elf/4.7.3/../../../../../H-i686-mingw32/nios2-elf/lib\libc.a(lib_a-locale.o)
                                 0x18 (size before relaxing)
 .rodata        0x2002ccbc       0x30 d:/altera13.1/nios2eds/bin/gnu/h-i686-mingw32/bin/../lib/gcc/nios2-elf/4.7.3/../../../../../H-i686-mingw32/nios2-elf/lib\libc.a(lib_a-locale.o)
 .rodata        0x2002ccec      0x124 d:/altera13.1/nios2eds/bin/gnu/h-i686-mingw32/bin/../lib/gcc/nios2-elf/4.7.3/../../../../../H-i686-mingw32/nios2-elf/lib\libc.a(lib_a-mprec.o)
                0x2002ccec                __mprec_tinytens
                0x2002cd14                __mprec_bigtens
                0x2002cd3c                __mprec_tens
 .rodata        0x2002ce10       0x14 d:/altera13.1/nios2eds/bin/gnu/h-i686-mingw32/bin/../lib/gcc/nios2-elf/4.7.3\libgcc.a(_thenan_df.o)
                0x2002ce10                __thenan_df
 .rodata        0x2002ce24      0x100 d:/altera13.1/nios2eds/bin/gnu/h-i686-mingw32/bin/../lib/gcc/nios2-elf/4.7.3\libgcc.a(_clz.o)
                0x2002ce24                __clz_tab
 .rodata        0x2002cf24        0xc ../DE1_SoC_SDRAM_Nios_Test_bsp/\libhal_bsp.a(alt_dev.o)
 .rodata        0x2002cf30       0x10 ../DE1_SoC_SDRAM_Nios_Test_bsp/\libhal_bsp.a(alt_main.o)
 .rodata        0x2002cf40       0x10 ../DE1_SoC_SDRAM_Nios_Test_bsp/\libhal_bsp.a(alt_sys_init.o)
 *(.rodata1)
                0x2002cf50                . = ALIGN (0x4)
                0x2002cf50                PROVIDE (__ram_rodata_end, ABSOLUTE (.))
                0x2002cae4                PROVIDE (__flash_rodata_start, LOADADDR (.rodata))

.rwdata         0x2002cf50     0x1a58 load address 0x2002e9a8
                0x2002cf50                PROVIDE (__ram_rwdata_start, ABSOLUTE (.))
                0x2002cf50                . = ALIGN (0x4)
 *(.got.plt)
 *(.got)
 *(.data1)
 *(.data .data.* .gnu.linkonce.d.*)
 .data          0x2002cf50        0x0 ../DE1_SoC_SDRAM_Nios_Test_bsp//obj/HAL/src/crt0.o
 .data          0x2002cf50        0x0 obj/default/main.o
 .data          0x2002cf50        0x0 obj/default/mem_verify.o
 .data          0x2002cf50        0x0 d:/altera13.1/nios2eds/bin/gnu/h-i686-mingw32/bin/../lib/gcc/nios2-elf/4.7.3\libgcc.a(lib2-divmod.o)
 .data          0x2002cf50        0x0 d:/altera13.1/nios2eds/bin/gnu/h-i686-mingw32/bin/../lib/gcc/nios2-elf/4.7.3/../../../../../H-i686-mingw32/nios2-elf/lib\libc.a(lib_a-memcpy.o)
 .data          0x2002cf50        0x0 d:/altera13.1/nios2eds/bin/gnu/h-i686-mingw32/bin/../lib/gcc/nios2-elf/4.7.3/../../../../../H-i686-mingw32/nios2-elf/lib\libc.a(lib_a-printf.o)
 .data          0x2002cf50        0x0 d:/altera13.1/nios2eds/bin/gnu/h-i686-mingw32/bin/../lib/gcc/nios2-elf/4.7.3/../../../../../H-i686-mingw32/nios2-elf/lib\libc.a(lib_a-putchar.o)
 .data          0x2002cf50        0x0 d:/altera13.1/nios2eds/bin/gnu/h-i686-mingw32/bin/../lib/gcc/nios2-elf/4.7.3/../../../../../H-i686-mingw32/nios2-elf/lib\libc.a(lib_a-puts.o)
 .data          0x2002cf50        0x0 d:/altera13.1/nios2eds/bin/gnu/h-i686-mingw32/bin/../lib/gcc/nios2-elf/4.7.3/../../../../../H-i686-mingw32/nios2-elf/lib\libc.a(lib_a-rand.o)
 .data          0x2002cf50        0x0 d:/altera13.1/nios2eds/bin/gnu/h-i686-mingw32/bin/../lib/gcc/nios2-elf/4.7.3/../../../../../H-i686-mingw32/nios2-elf/lib\libc.a(lib_a-strlen.o)
 .data          0x2002cf50        0x0 d:/altera13.1/nios2eds/bin/gnu/h-i686-mingw32/bin/../lib/gcc/nios2-elf/4.7.3/../../../../../H-i686-mingw32/nios2-elf/lib\libc.a(lib_a-vfprintf.o)
 .data          0x2002cf50        0x0 d:/altera13.1/nios2eds/bin/gnu/h-i686-mingw32/bin/../lib/gcc/nios2-elf/4.7.3/../../../../../H-i686-mingw32/nios2-elf/lib\libc.a(lib_a-wsetup.o)
 .data          0x2002cf50        0x0 d:/altera13.1/nios2eds/bin/gnu/h-i686-mingw32/bin/../lib/gcc/nios2-elf/4.7.3/../../../../../H-i686-mingw32/nios2-elf/lib\libc.a(lib_a-dtoa.o)
 .data          0x2002cf50        0x0 d:/altera13.1/nios2eds/bin/gnu/h-i686-mingw32/bin/../lib/gcc/nios2-elf/4.7.3/../../../../../H-i686-mingw32/nios2-elf/lib\libc.a(lib_a-fflush.o)
 .data          0x2002cf50        0x0 d:/altera13.1/nios2eds/bin/gnu/h-i686-mingw32/bin/../lib/gcc/nios2-elf/4.7.3/../../../../../H-i686-mingw32/nios2-elf/lib\libc.a(lib_a-findfp.o)
 .data          0x2002cf50        0x0 d:/altera13.1/nios2eds/bin/gnu/h-i686-mingw32/bin/../lib/gcc/nios2-elf/4.7.3/../../../../../H-i686-mingw32/nios2-elf/lib\libc.a(lib_a-freer.o)
 .data          0x2002cf50        0x0 d:/altera13.1/nios2eds/bin/gnu/h-i686-mingw32/bin/../lib/gcc/nios2-elf/4.7.3/../../../../../H-i686-mingw32/nios2-elf/lib\libc.a(lib_a-fvwrite.o)
 .data          0x2002cf50        0x0 d:/altera13.1/nios2eds/bin/gnu/h-i686-mingw32/bin/../lib/gcc/nios2-elf/4.7.3/../../../../../H-i686-mingw32/nios2-elf/lib\libc.a(lib_a-fwalk.o)
 .data          0x2002cf50      0x400 d:/altera13.1/nios2eds/bin/gnu/h-i686-mingw32/bin/../lib/gcc/nios2-elf/4.7.3/../../../../../H-i686-mingw32/nios2-elf/lib\libc.a(lib_a-impure.o)
 .data          0x2002d350        0xc d:/altera13.1/nios2eds/bin/gnu/h-i686-mingw32/bin/../lib/gcc/nios2-elf/4.7.3/../../../../../H-i686-mingw32/nios2-elf/lib\libc.a(lib_a-locale.o)
                0x2002d350                __lc_ctype
 .data          0x2002d35c        0x0 d:/altera13.1/nios2eds/bin/gnu/h-i686-mingw32/bin/../lib/gcc/nios2-elf/4.7.3/../../../../../H-i686-mingw32/nios2-elf/lib\libc.a(lib_a-makebuf.o)
 .data          0x2002d35c      0x408 d:/altera13.1/nios2eds/bin/gnu/h-i686-mingw32/bin/../lib/gcc/nios2-elf/4.7.3/../../../../../H-i686-mingw32/nios2-elf/lib\libc.a(lib_a-mallocr.o)
                0x2002d35c                __malloc_av_
 .data          0x2002d764        0x0 d:/altera13.1/nios2eds/bin/gnu/h-i686-mingw32/bin/../lib/gcc/nios2-elf/4.7.3/../../../../../H-i686-mingw32/nios2-elf/lib\libc.a(lib_a-memchr.o)
 .data          0x2002d764        0x0 d:/altera13.1/nios2eds/bin/gnu/h-i686-mingw32/bin/../lib/gcc/nios2-elf/4.7.3/../../../../../H-i686-mingw32/nios2-elf/lib\libc.a(lib_a-memmove.o)
 .data          0x2002d764        0x0 d:/altera13.1/nios2eds/bin/gnu/h-i686-mingw32/bin/../lib/gcc/nios2-elf/4.7.3/../../../../../H-i686-mingw32/nios2-elf/lib\libc.a(lib_a-memset.o)
 .data          0x2002d764        0x0 d:/altera13.1/nios2eds/bin/gnu/h-i686-mingw32/bin/../lib/gcc/nios2-elf/4.7.3/../../../../../H-i686-mingw32/nios2-elf/lib\libc.a(lib_a-mprec.o)
 .data          0x2002d764        0x0 d:/altera13.1/nios2eds/bin/gnu/h-i686-mingw32/bin/../lib/gcc/nios2-elf/4.7.3/../../../../../H-i686-mingw32/nios2-elf/lib\libc.a(lib_a-putc.o)
 .data          0x2002d764        0x0 d:/altera13.1/nios2eds/bin/gnu/h-i686-mingw32/bin/../lib/gcc/nios2-elf/4.7.3/../../../../../H-i686-mingw32/nios2-elf/lib\libc.a(lib_a-reallocr.o)
 .data          0x2002d764        0x0 d:/altera13.1/nios2eds/bin/gnu/h-i686-mingw32/bin/../lib/gcc/nios2-elf/4.7.3/../../../../../H-i686-mingw32/nios2-elf/lib\libc.a(lib_a-s_isinfd.o)
 .data          0x2002d764        0x0 d:/altera13.1/nios2eds/bin/gnu/h-i686-mingw32/bin/../lib/gcc/nios2-elf/4.7.3/../../../../../H-i686-mingw32/nios2-elf/lib\libc.a(lib_a-s_isnand.o)
 .data          0x2002d764        0x0 d:/altera13.1/nios2eds/bin/gnu/h-i686-mingw32/bin/../lib/gcc/nios2-elf/4.7.3/../../../../../H-i686-mingw32/nios2-elf/lib\libc.a(lib_a-sbrkr.o)
 .data          0x2002d764        0x0 d:/altera13.1/nios2eds/bin/gnu/h-i686-mingw32/bin/../lib/gcc/nios2-elf/4.7.3/../../../../../H-i686-mingw32/nios2-elf/lib\libc.a(lib_a-stdio.o)
 .data          0x2002d764        0x0 d:/altera13.1/nios2eds/bin/gnu/h-i686-mingw32/bin/../lib/gcc/nios2-elf/4.7.3/../../../../../H-i686-mingw32/nios2-elf/lib\libc.a(lib_a-strcmp.o)
 .data          0x2002d764        0x0 d:/altera13.1/nios2eds/bin/gnu/h-i686-mingw32/bin/../lib/gcc/nios2-elf/4.7.3/../../../../../H-i686-mingw32/nios2-elf/lib\libc.a(lib_a-wbuf.o)
 .data          0x2002d764        0x0 d:/altera13.1/nios2eds/bin/gnu/h-i686-mingw32/bin/../lib/gcc/nios2-elf/4.7.3/../../../../../H-i686-mingw32/nios2-elf/lib\libc.a(lib_a-writer.o)
 .data          0x2002d764        0x0 d:/altera13.1/nios2eds/bin/gnu/h-i686-mingw32/bin/../lib/gcc/nios2-elf/4.7.3/../../../../../H-i686-mingw32/nios2-elf/lib\libc.a(lib_a-callocr.o)
 .data          0x2002d764        0x0 d:/altera13.1/nios2eds/bin/gnu/h-i686-mingw32/bin/../lib/gcc/nios2-elf/4.7.3/../../../../../H-i686-mingw32/nios2-elf/lib\libc.a(lib_a-closer.o)
 .data          0x2002d764        0x0 d:/altera13.1/nios2eds/bin/gnu/h-i686-mingw32/bin/../lib/gcc/nios2-elf/4.7.3/../../../../../H-i686-mingw32/nios2-elf/lib\libc.a(lib_a-fclose.o)
 .data          0x2002d764        0x0 d:/altera13.1/nios2eds/bin/gnu/h-i686-mingw32/bin/../lib/gcc/nios2-elf/4.7.3/../../../../../H-i686-mingw32/nios2-elf/lib\libc.a(lib_a-fstatr.o)
 .data          0x2002d764        0x0 d:/altera13.1/nios2eds/bin/gnu/h-i686-mingw32/bin/../lib/gcc/nios2-elf/4.7.3/../../../../../H-i686-mingw32/nios2-elf/lib\libc.a(lib_a-int_errno.o)
 .data          0x2002d764        0x0 d:/altera13.1/nios2eds/bin/gnu/h-i686-mingw32/bin/../lib/gcc/nios2-elf/4.7.3/../../../../../H-i686-mingw32/nios2-elf/lib\libc.a(lib_a-isattyr.o)
 .data          0x2002d764        0x0 d:/altera13.1/nios2eds/bin/gnu/h-i686-mingw32/bin/../lib/gcc/nios2-elf/4.7.3/../../../../../H-i686-mingw32/nios2-elf/lib\libc.a(lib_a-lseekr.o)
 .data          0x2002d764        0x0 d:/altera13.1/nios2eds/bin/gnu/h-i686-mingw32/bin/../lib/gcc/nios2-elf/4.7.3/../../../../../H-i686-mingw32/nios2-elf/lib\libc.a(lib_a-readr.o)
 .data          0x2002d764        0x0 d:/altera13.1/nios2eds/bin/gnu/h-i686-mingw32/bin/../lib/gcc/nios2-elf/4.7.3\libgcc.a(_muldi3.o)
 .data          0x2002d764        0x0 d:/altera13.1/nios2eds/bin/gnu/h-i686-mingw32/bin/../lib/gcc/nios2-elf/4.7.3\libgcc.a(_udivdi3.o)
 .data          0x2002d764        0x0 d:/altera13.1/nios2eds/bin/gnu/h-i686-mingw32/bin/../lib/gcc/nios2-elf/4.7.3\libgcc.a(_umoddi3.o)
 .data          0x2002d764        0x0 d:/altera13.1/nios2eds/bin/gnu/h-i686-mingw32/bin/../lib/gcc/nios2-elf/4.7.3\libgcc.a(_addsub_df.o)
 .data          0x2002d764        0x0 d:/altera13.1/nios2eds/bin/gnu/h-i686-mingw32/bin/../lib/gcc/nios2-elf/4.7.3\libgcc.a(_mul_df.o)
 .data          0x2002d764        0x0 d:/altera13.1/nios2eds/bin/gnu/h-i686-mingw32/bin/../lib/gcc/nios2-elf/4.7.3\libgcc.a(_div_df.o)
 .data          0x2002d764        0x0 d:/altera13.1/nios2eds/bin/gnu/h-i686-mingw32/bin/../lib/gcc/nios2-elf/4.7.3\libgcc.a(_eq_df.o)
 .data          0x2002d764        0x0 d:/altera13.1/nios2eds/bin/gnu/h-i686-mingw32/bin/../lib/gcc/nios2-elf/4.7.3\libgcc.a(_ne_df.o)
 .data          0x2002d764        0x0 d:/altera13.1/nios2eds/bin/gnu/h-i686-mingw32/bin/../lib/gcc/nios2-elf/4.7.3\libgcc.a(_gt_df.o)
 .data          0x2002d764        0x0 d:/altera13.1/nios2eds/bin/gnu/h-i686-mingw32/bin/../lib/gcc/nios2-elf/4.7.3\libgcc.a(_ge_df.o)
 .data          0x2002d764        0x0 d:/altera13.1/nios2eds/bin/gnu/h-i686-mingw32/bin/../lib/gcc/nios2-elf/4.7.3\libgcc.a(_lt_df.o)
 .data          0x2002d764        0x0 d:/altera13.1/nios2eds/bin/gnu/h-i686-mingw32/bin/../lib/gcc/nios2-elf/4.7.3\libgcc.a(_si_to_df.o)
 .data          0x2002d764        0x0 d:/altera13.1/nios2eds/bin/gnu/h-i686-mingw32/bin/../lib/gcc/nios2-elf/4.7.3\libgcc.a(_df_to_si.o)
 .data          0x2002d764        0x0 d:/altera13.1/nios2eds/bin/gnu/h-i686-mingw32/bin/../lib/gcc/nios2-elf/4.7.3\libgcc.a(_thenan_df.o)
 .data          0x2002d764        0x0 d:/altera13.1/nios2eds/bin/gnu/h-i686-mingw32/bin/../lib/gcc/nios2-elf/4.7.3\libgcc.a(_usi_to_df.o)
 .data          0x2002d764        0x0 d:/altera13.1/nios2eds/bin/gnu/h-i686-mingw32/bin/../lib/gcc/nios2-elf/4.7.3\libgcc.a(_clz.o)
 .data          0x2002d764        0x0 d:/altera13.1/nios2eds/bin/gnu/h-i686-mingw32/bin/../lib/gcc/nios2-elf/4.7.3\libgcc.a(_clzsi2.o)
 .data          0x2002d764        0x0 d:/altera13.1/nios2eds/bin/gnu/h-i686-mingw32/bin/../lib/gcc/nios2-elf/4.7.3\libgcc.a(_pack_df.o)
 .data          0x2002d764        0x0 d:/altera13.1/nios2eds/bin/gnu/h-i686-mingw32/bin/../lib/gcc/nios2-elf/4.7.3\libgcc.a(_unpack_df.o)
 .data          0x2002d764        0x0 d:/altera13.1/nios2eds/bin/gnu/h-i686-mingw32/bin/../lib/gcc/nios2-elf/4.7.3\libgcc.a(_fpcmp_parts_df.o)
 .data          0x2002d764        0x0 d:/altera13.1/nios2eds/bin/gnu/h-i686-mingw32/bin/../lib/gcc/nios2-elf/4.7.3\libgcc.a(_lshrdi3.o)
 .data          0x2002d764        0x0 d:/altera13.1/nios2eds/bin/gnu/h-i686-mingw32/bin/../lib/gcc/nios2-elf/4.7.3\libgcc.a(_ashldi3.o)
 .data          0x2002d764        0x0 ../DE1_SoC_SDRAM_Nios_Test_bsp/\libhal_bsp.a(alt_close.o)
 .data          0x2002d764        0x0 ../DE1_SoC_SDRAM_Nios_Test_bsp/\libhal_bsp.a(alt_dcache_flush_all.o)
 .data          0x2002d764      0x1a8 ../DE1_SoC_SDRAM_Nios_Test_bsp/\libhal_bsp.a(alt_dev.o)
                0x2002d764                alt_dev_null
                0x2002d78c                alt_fd_list
 .data          0x2002d90c        0x0 ../DE1_SoC_SDRAM_Nios_Test_bsp/\libhal_bsp.a(alt_errno.o)
 .data          0x2002d90c        0x0 ../DE1_SoC_SDRAM_Nios_Test_bsp/\libhal_bsp.a(alt_fstat.o)
 .data          0x2002d90c        0x0 ../DE1_SoC_SDRAM_Nios_Test_bsp/\libhal_bsp.a(alt_isatty.o)
 .data          0x2002d90c        0x0 ../DE1_SoC_SDRAM_Nios_Test_bsp/\libhal_bsp.a(alt_load.o)
 .data          0x2002d90c        0x0 ../DE1_SoC_SDRAM_Nios_Test_bsp/\libhal_bsp.a(alt_lseek.o)
 .data          0x2002d90c        0x0 ../DE1_SoC_SDRAM_Nios_Test_bsp/\libhal_bsp.a(alt_main.o)
 .data          0x2002d90c        0x0 ../DE1_SoC_SDRAM_Nios_Test_bsp/\libhal_bsp.a(alt_malloc_lock.o)
 .data          0x2002d90c        0x0 ../DE1_SoC_SDRAM_Nios_Test_bsp/\libhal_bsp.a(alt_read.o)
 .data          0x2002d90c        0x0 ../DE1_SoC_SDRAM_Nios_Test_bsp/\libhal_bsp.a(alt_release_fd.o)
 .data          0x2002d90c        0x0 ../DE1_SoC_SDRAM_Nios_Test_bsp/\libhal_bsp.a(alt_sbrk.o)
 .data          0x2002d90c        0x0 ../DE1_SoC_SDRAM_Nios_Test_bsp/\libhal_bsp.a(alt_tick.o)
 .data          0x2002d90c        0x0 ../DE1_SoC_SDRAM_Nios_Test_bsp/\libhal_bsp.a(alt_usleep.o)
 .data          0x2002d90c        0x0 ../DE1_SoC_SDRAM_Nios_Test_bsp/\libhal_bsp.a(alt_write.o)
 .data          0x2002d90c     0x1060 ../DE1_SoC_SDRAM_Nios_Test_bsp/\libhal_bsp.a(alt_sys_init.o)
 .data          0x2002e96c        0x0 ../DE1_SoC_SDRAM_Nios_Test_bsp/\libhal_bsp.a(altera_avalon_jtag_uart_fd.o)
 .data          0x2002e96c        0x0 ../DE1_SoC_SDRAM_Nios_Test_bsp/\libhal_bsp.a(altera_avalon_jtag_uart_init.o)
 .data          0x2002e96c        0x0 ../DE1_SoC_SDRAM_Nios_Test_bsp/\libhal_bsp.a(altera_avalon_jtag_uart_ioctl.o)
 .data          0x2002e96c        0x0 ../DE1_SoC_SDRAM_Nios_Test_bsp/\libhal_bsp.a(altera_avalon_jtag_uart_read.o)
 .data          0x2002e96c        0x0 ../DE1_SoC_SDRAM_Nios_Test_bsp/\libhal_bsp.a(altera_avalon_jtag_uart_write.o)
 .data          0x2002e96c        0x0 ../DE1_SoC_SDRAM_Nios_Test_bsp/\libhal_bsp.a(altera_avalon_timer_sc.o)
 .data          0x2002e96c        0x0 ../DE1_SoC_SDRAM_Nios_Test_bsp/\libhal_bsp.a(alt_alarm_start.o)
 .data          0x2002e96c        0x0 ../DE1_SoC_SDRAM_Nios_Test_bsp/\libhal_bsp.a(alt_busy_sleep.o)
 .data          0x2002e96c        0x0 ../DE1_SoC_SDRAM_Nios_Test_bsp/\libhal_bsp.a(alt_dev_llist_insert.o)
 .data          0x2002e96c        0x0 ../DE1_SoC_SDRAM_Nios_Test_bsp/\libhal_bsp.a(alt_do_ctors.o)
 .data          0x2002e96c        0x0 ../DE1_SoC_SDRAM_Nios_Test_bsp/\libhal_bsp.a(alt_do_dtors.o)
 .data          0x2002e96c        0x0 ../DE1_SoC_SDRAM_Nios_Test_bsp/\libhal_bsp.a(alt_icache_flush_all.o)
 .data          0x2002e96c        0x0 ../DE1_SoC_SDRAM_Nios_Test_bsp/\libhal_bsp.a(alt_iic.o)
 .data          0x2002e96c        0x0 ../DE1_SoC_SDRAM_Nios_Test_bsp/\libhal_bsp.a(alt_iic_isr_register.o)
 .data          0x2002e96c        0x0 ../DE1_SoC_SDRAM_Nios_Test_bsp/\libhal_bsp.a(alt_io_redirect.o)
 .data          0x2002e96c        0x0 ../DE1_SoC_SDRAM_Nios_Test_bsp/\libhal_bsp.a(alt_irq_entry.o)
 .data          0x2002e96c        0x0 ../DE1_SoC_SDRAM_Nios_Test_bsp/\libhal_bsp.a(alt_irq_handler.o)
 .data          0x2002e96c        0x0 ../DE1_SoC_SDRAM_Nios_Test_bsp/\libhal_bsp.a(alt_irq_vars.o)
 .data          0x2002e96c        0x0 ../DE1_SoC_SDRAM_Nios_Test_bsp/\libhal_bsp.a(alt_open.o)
 .data          0x2002e96c        0x0 ../DE1_SoC_SDRAM_Nios_Test_bsp/\libhal_bsp.a(altera_nios2_qsys_irq.o)
 .data          0x2002e96c        0x0 ../DE1_SoC_SDRAM_Nios_Test_bsp/\libhal_bsp.a(alt_exception_entry.o)
 .data          0x2002e96c        0x0 ../DE1_SoC_SDRAM_Nios_Test_bsp/\libhal_bsp.a(alt_find_dev.o)
 .data          0x2002e96c        0x0 ../DE1_SoC_SDRAM_Nios_Test_bsp/\libhal_bsp.a(alt_find_file.o)
 .data          0x2002e96c        0x0 ../DE1_SoC_SDRAM_Nios_Test_bsp/\libhal_bsp.a(alt_get_fd.o)
 .data          0x2002e96c        0x0 ../DE1_SoC_SDRAM_Nios_Test_bsp/\libhal_bsp.a(alt_icache_flush.o)
 .data          0x2002e96c        0x0 d:/altera13.1/nios2eds/bin/gnu/h-i686-mingw32/bin/../lib/gcc/nios2-elf/4.7.3/../../../../../H-i686-mingw32/nios2-elf/lib\libc.a(lib_a-atexit.o)
 .data          0x2002e96c        0x0 d:/altera13.1/nios2eds/bin/gnu/h-i686-mingw32/bin/../lib/gcc/nios2-elf/4.7.3/../../../../../H-i686-mingw32/nios2-elf/lib\libc.a(lib_a-exit.o)
 .data          0x2002e96c        0x0 d:/altera13.1/nios2eds/bin/gnu/h-i686-mingw32/bin/../lib/gcc/nios2-elf/4.7.3/../../../../../H-i686-mingw32/nios2-elf/lib\libc.a(lib_a-memcmp.o)
 .data          0x2002e96c        0x0 d:/altera13.1/nios2eds/bin/gnu/h-i686-mingw32/bin/../lib/gcc/nios2-elf/4.7.3/../../../../../H-i686-mingw32/nios2-elf/lib\libc.a(lib_a-__atexit.o)
 .data          0x2002e96c        0x0 d:/altera13.1/nios2eds/bin/gnu/h-i686-mingw32/bin/../lib/gcc/nios2-elf/4.7.3/../../../../../H-i686-mingw32/nios2-elf/lib\libc.a(lib_a-__call_atexit.o)
 .data          0x2002e96c        0x0 ../DE1_SoC_SDRAM_Nios_Test_bsp/\libhal_bsp.a(alt_exit.o)
                0x2003696c                _gp = ABSOLUTE ((. + 0x8000))
                0x2003696c                PROVIDE (gp, _gp)
 *(.rwdata .rwdata.*)
 *(.sdata .sdata.* .gnu.linkonce.s.*)
 .sdata         0x2002e96c        0x8 d:/altera13.1/nios2eds/bin/gnu/h-i686-mingw32/bin/../lib/gcc/nios2-elf/4.7.3/../../../../../H-i686-mingw32/nios2-elf/lib\libc.a(lib_a-impure.o)
                0x2002e96c                _global_impure_ptr
                0x2002e970                _impure_ptr
 .sdata         0x2002e974        0x4 d:/altera13.1/nios2eds/bin/gnu/h-i686-mingw32/bin/../lib/gcc/nios2-elf/4.7.3/../../../../../H-i686-mingw32/nios2-elf/lib\libc.a(lib_a-locale.o)
                0x2002e974                __mb_cur_max
 .sdata         0x2002e978        0x8 d:/altera13.1/nios2eds/bin/gnu/h-i686-mingw32/bin/../lib/gcc/nios2-elf/4.7.3/../../../../../H-i686-mingw32/nios2-elf/lib\libc.a(lib_a-mallocr.o)
                0x2002e978                __malloc_sbrk_base
                0x2002e97c                __malloc_trim_threshold
 .sdata         0x2002e980       0x14 ../DE1_SoC_SDRAM_Nios_Test_bsp/\libhal_bsp.a(alt_dev.o)
                0x2002e980                alt_fs_list
                0x2002e988                alt_dev_list
                0x2002e990                alt_max_fd
 .sdata         0x2002e994        0x4 ../DE1_SoC_SDRAM_Nios_Test_bsp/\libhal_bsp.a(alt_errno.o)
                0x2002e994                alt_errno
 .sdata         0x2002e998        0x4 ../DE1_SoC_SDRAM_Nios_Test_bsp/\libhal_bsp.a(alt_sbrk.o)
 .sdata         0x2002e99c        0x8 ../DE1_SoC_SDRAM_Nios_Test_bsp/\libhal_bsp.a(alt_tick.o)
                0x2002e99c                alt_alarm_list
 .sdata         0x2002e9a4        0x4 ../DE1_SoC_SDRAM_Nios_Test_bsp/\libhal_bsp.a(alt_irq_vars.o)
                0x2002e9a4                alt_priority_mask
 *(.sdata2 .sdata2.* .gnu.linkonce.s2.*)
                0x2002e9a8                . = ALIGN (0x4)
                0x2002e9a8                _edata = ABSOLUTE (.)
                0x2002e9a8                PROVIDE (edata, ABSOLUTE (.))
                0x2002e9a8                PROVIDE (__ram_rwdata_end, ABSOLUTE (.))
                0x2002e9a8                PROVIDE (__flash_rwdata_start, LOADADDR (.rwdata))

.bss            0x20030400      0x2ec
                0x20030400                __bss_start = ABSOLUTE (.)
                0x20030400                PROVIDE (__sbss_start, ABSOLUTE (.))
                0x20030400                PROVIDE (___sbss_start, ABSOLUTE (.))
 *(.dynsbss)
 *(.sbss .sbss.* .gnu.linkonce.sb.*)
 .sbss          0x20030400        0xc d:/altera13.1/nios2eds/bin/gnu/h-i686-mingw32/bin/../lib/gcc/nios2-elf/4.7.3/../../../../../H-i686-mingw32/nios2-elf/lib\libc.a(lib_a-locale.o)
                0x20030400                _PathLocale
                0x20030404                __mlocale_changed
                0x20030408                __nlocale_changed
 .sbss          0x2003040c        0xc d:/altera13.1/nios2eds/bin/gnu/h-i686-mingw32/bin/../lib/gcc/nios2-elf/4.7.3/../../../../../H-i686-mingw32/nios2-elf/lib\libc.a(lib_a-mallocr.o)
                0x2003040c                __malloc_max_total_mem
                0x20030410                __malloc_max_sbrked_mem
                0x20030414                __malloc_top_pad
 .sbss          0x20030418        0x4 d:/altera13.1/nios2eds/bin/gnu/h-i686-mingw32/bin/../lib/gcc/nios2-elf/4.7.3/../../../../../H-i686-mingw32/nios2-elf/lib\libc.a(lib_a-int_errno.o)
                0x20030418                errno
 .sbss          0x2003041c        0xc ../DE1_SoC_SDRAM_Nios_Test_bsp/\libhal_bsp.a(alt_main.o)
                0x2003041c                alt_argc
                0x20030420                alt_argv
                0x20030424                alt_envp
 .sbss          0x20030428        0x8 ../DE1_SoC_SDRAM_Nios_Test_bsp/\libhal_bsp.a(alt_tick.o)
                0x20030428                _alt_tick_rate
                0x2003042c                _alt_nticks
 .sbss          0x20030430        0x4 ../DE1_SoC_SDRAM_Nios_Test_bsp/\libhal_bsp.a(alt_irq_vars.o)
                0x20030430                alt_irq_active
 *(.sbss2 .sbss2.* .gnu.linkonce.sb2.*)
 *(.scommon)
                0x20030434                PROVIDE (__sbss_end, ABSOLUTE (.))
                0x20030434                PROVIDE (___sbss_end, ABSOLUTE (.))
 *(.dynbss)
 *(.bss .bss.* .gnu.linkonce.b.*)
 .bss           0x20030434        0x0 ../DE1_SoC_SDRAM_Nios_Test_bsp//obj/HAL/src/crt0.o
 .bss           0x20030434        0x0 obj/default/main.o
 .bss           0x20030434        0x0 obj/default/mem_verify.o
 .bss           0x20030434        0x0 d:/altera13.1/nios2eds/bin/gnu/h-i686-mingw32/bin/../lib/gcc/nios2-elf/4.7.3\libgcc.a(lib2-divmod.o)
 .bss           0x20030434        0x0 d:/altera13.1/nios2eds/bin/gnu/h-i686-mingw32/bin/../lib/gcc/nios2-elf/4.7.3/../../../../../H-i686-mingw32/nios2-elf/lib\libc.a(lib_a-memcpy.o)
 .bss           0x20030434        0x0 d:/altera13.1/nios2eds/bin/gnu/h-i686-mingw32/bin/../lib/gcc/nios2-elf/4.7.3/../../../../../H-i686-mingw32/nios2-elf/lib\libc.a(lib_a-printf.o)
 .bss           0x20030434        0x0 d:/altera13.1/nios2eds/bin/gnu/h-i686-mingw32/bin/../lib/gcc/nios2-elf/4.7.3/../../../../../H-i686-mingw32/nios2-elf/lib\libc.a(lib_a-putchar.o)
 .bss           0x20030434        0x0 d:/altera13.1/nios2eds/bin/gnu/h-i686-mingw32/bin/../lib/gcc/nios2-elf/4.7.3/../../../../../H-i686-mingw32/nios2-elf/lib\libc.a(lib_a-puts.o)
 .bss           0x20030434        0x0 d:/altera13.1/nios2eds/bin/gnu/h-i686-mingw32/bin/../lib/gcc/nios2-elf/4.7.3/../../../../../H-i686-mingw32/nios2-elf/lib\libc.a(lib_a-rand.o)
 .bss           0x20030434        0x0 d:/altera13.1/nios2eds/bin/gnu/h-i686-mingw32/bin/../lib/gcc/nios2-elf/4.7.3/../../../../../H-i686-mingw32/nios2-elf/lib\libc.a(lib_a-strlen.o)
 .bss           0x20030434        0x0 d:/altera13.1/nios2eds/bin/gnu/h-i686-mingw32/bin/../lib/gcc/nios2-elf/4.7.3/../../../../../H-i686-mingw32/nios2-elf/lib\libc.a(lib_a-vfprintf.o)
 .bss           0x20030434        0x0 d:/altera13.1/nios2eds/bin/gnu/h-i686-mingw32/bin/../lib/gcc/nios2-elf/4.7.3/../../../../../H-i686-mingw32/nios2-elf/lib\libc.a(lib_a-wsetup.o)
 .bss           0x20030434        0x0 d:/altera13.1/nios2eds/bin/gnu/h-i686-mingw32/bin/../lib/gcc/nios2-elf/4.7.3/../../../../../H-i686-mingw32/nios2-elf/lib\libc.a(lib_a-dtoa.o)
 .bss           0x20030434        0x0 d:/altera13.1/nios2eds/bin/gnu/h-i686-mingw32/bin/../lib/gcc/nios2-elf/4.7.3/../../../../../H-i686-mingw32/nios2-elf/lib\libc.a(lib_a-fflush.o)
 .bss           0x20030434        0x0 d:/altera13.1/nios2eds/bin/gnu/h-i686-mingw32/bin/../lib/gcc/nios2-elf/4.7.3/../../../../../H-i686-mingw32/nios2-elf/lib\libc.a(lib_a-findfp.o)
 .bss           0x20030434        0x0 d:/altera13.1/nios2eds/bin/gnu/h-i686-mingw32/bin/../lib/gcc/nios2-elf/4.7.3/../../../../../H-i686-mingw32/nios2-elf/lib\libc.a(lib_a-freer.o)
 .bss           0x20030434        0x0 d:/altera13.1/nios2eds/bin/gnu/h-i686-mingw32/bin/../lib/gcc/nios2-elf/4.7.3/../../../../../H-i686-mingw32/nios2-elf/lib\libc.a(lib_a-fvwrite.o)
 .bss           0x20030434        0x0 d:/altera13.1/nios2eds/bin/gnu/h-i686-mingw32/bin/../lib/gcc/nios2-elf/4.7.3/../../../../../H-i686-mingw32/nios2-elf/lib\libc.a(lib_a-fwalk.o)
 .bss           0x20030434        0x0 d:/altera13.1/nios2eds/bin/gnu/h-i686-mingw32/bin/../lib/gcc/nios2-elf/4.7.3/../../../../../H-i686-mingw32/nios2-elf/lib\libc.a(lib_a-impure.o)
 .bss           0x20030434        0x0 d:/altera13.1/nios2eds/bin/gnu/h-i686-mingw32/bin/../lib/gcc/nios2-elf/4.7.3/../../../../../H-i686-mingw32/nios2-elf/lib\libc.a(lib_a-locale.o)
 .bss           0x20030434        0x0 d:/altera13.1/nios2eds/bin/gnu/h-i686-mingw32/bin/../lib/gcc/nios2-elf/4.7.3/../../../../../H-i686-mingw32/nios2-elf/lib\libc.a(lib_a-makebuf.o)
 .bss           0x20030434       0x28 d:/altera13.1/nios2eds/bin/gnu/h-i686-mingw32/bin/../lib/gcc/nios2-elf/4.7.3/../../../../../H-i686-mingw32/nios2-elf/lib\libc.a(lib_a-mallocr.o)
                0x20030434                __malloc_current_mallinfo
 .bss           0x2003045c        0x0 d:/altera13.1/nios2eds/bin/gnu/h-i686-mingw32/bin/../lib/gcc/nios2-elf/4.7.3/../../../../../H-i686-mingw32/nios2-elf/lib\libc.a(lib_a-memchr.o)
 .bss           0x2003045c        0x0 d:/altera13.1/nios2eds/bin/gnu/h-i686-mingw32/bin/../lib/gcc/nios2-elf/4.7.3/../../../../../H-i686-mingw32/nios2-elf/lib\libc.a(lib_a-memmove.o)
 .bss           0x2003045c        0x0 d:/altera13.1/nios2eds/bin/gnu/h-i686-mingw32/bin/../lib/gcc/nios2-elf/4.7.3/../../../../../H-i686-mingw32/nios2-elf/lib\libc.a(lib_a-memset.o)
 .bss           0x2003045c        0x0 d:/altera13.1/nios2eds/bin/gnu/h-i686-mingw32/bin/../lib/gcc/nios2-elf/4.7.3/../../../../../H-i686-mingw32/nios2-elf/lib\libc.a(lib_a-mprec.o)
 .bss           0x2003045c        0x0 d:/altera13.1/nios2eds/bin/gnu/h-i686-mingw32/bin/../lib/gcc/nios2-elf/4.7.3/../../../../../H-i686-mingw32/nios2-elf/lib\libc.a(lib_a-putc.o)
 .bss           0x2003045c        0x0 d:/altera13.1/nios2eds/bin/gnu/h-i686-mingw32/bin/../lib/gcc/nios2-elf/4.7.3/../../../../../H-i686-mingw32/nios2-elf/lib\libc.a(lib_a-reallocr.o)
 .bss           0x2003045c        0x0 d:/altera13.1/nios2eds/bin/gnu/h-i686-mingw32/bin/../lib/gcc/nios2-elf/4.7.3/../../../../../H-i686-mingw32/nios2-elf/lib\libc.a(lib_a-s_isinfd.o)
 .bss           0x2003045c        0x0 d:/altera13.1/nios2eds/bin/gnu/h-i686-mingw32/bin/../lib/gcc/nios2-elf/4.7.3/../../../../../H-i686-mingw32/nios2-elf/lib\libc.a(lib_a-s_isnand.o)
 .bss           0x2003045c        0x0 d:/altera13.1/nios2eds/bin/gnu/h-i686-mingw32/bin/../lib/gcc/nios2-elf/4.7.3/../../../../../H-i686-mingw32/nios2-elf/lib\libc.a(lib_a-sbrkr.o)
 .bss           0x2003045c        0x0 d:/altera13.1/nios2eds/bin/gnu/h-i686-mingw32/bin/../lib/gcc/nios2-elf/4.7.3/../../../../../H-i686-mingw32/nios2-elf/lib\libc.a(lib_a-stdio.o)
 .bss           0x2003045c        0x0 d:/altera13.1/nios2eds/bin/gnu/h-i686-mingw32/bin/../lib/gcc/nios2-elf/4.7.3/../../../../../H-i686-mingw32/nios2-elf/lib\libc.a(lib_a-strcmp.o)
 .bss           0x2003045c        0x0 d:/altera13.1/nios2eds/bin/gnu/h-i686-mingw32/bin/../lib/gcc/nios2-elf/4.7.3/../../../../../H-i686-mingw32/nios2-elf/lib\libc.a(lib_a-wbuf.o)
 .bss           0x2003045c        0x0 d:/altera13.1/nios2eds/bin/gnu/h-i686-mingw32/bin/../lib/gcc/nios2-elf/4.7.3/../../../../../H-i686-mingw32/nios2-elf/lib\libc.a(lib_a-writer.o)
 .bss           0x2003045c        0x0 d:/altera13.1/nios2eds/bin/gnu/h-i686-mingw32/bin/../lib/gcc/nios2-elf/4.7.3/../../../../../H-i686-mingw32/nios2-elf/lib\libc.a(lib_a-callocr.o)
 .bss           0x2003045c        0x0 d:/altera13.1/nios2eds/bin/gnu/h-i686-mingw32/bin/../lib/gcc/nios2-elf/4.7.3/../../../../../H-i686-mingw32/nios2-elf/lib\libc.a(lib_a-closer.o)
 .bss           0x2003045c        0x0 d:/altera13.1/nios2eds/bin/gnu/h-i686-mingw32/bin/../lib/gcc/nios2-elf/4.7.3/../../../../../H-i686-mingw32/nios2-elf/lib\libc.a(lib_a-fclose.o)
 .bss           0x2003045c        0x0 d:/altera13.1/nios2eds/bin/gnu/h-i686-mingw32/bin/../lib/gcc/nios2-elf/4.7.3/../../../../../H-i686-mingw32/nios2-elf/lib\libc.a(lib_a-fstatr.o)
 .bss           0x2003045c        0x0 d:/altera13.1/nios2eds/bin/gnu/h-i686-mingw32/bin/../lib/gcc/nios2-elf/4.7.3/../../../../../H-i686-mingw32/nios2-elf/lib\libc.a(lib_a-int_errno.o)
 .bss           0x2003045c        0x0 d:/altera13.1/nios2eds/bin/gnu/h-i686-mingw32/bin/../lib/gcc/nios2-elf/4.7.3/../../../../../H-i686-mingw32/nios2-elf/lib\libc.a(lib_a-isattyr.o)
 .bss           0x2003045c        0x0 d:/altera13.1/nios2eds/bin/gnu/h-i686-mingw32/bin/../lib/gcc/nios2-elf/4.7.3/../../../../../H-i686-mingw32/nios2-elf/lib\libc.a(lib_a-lseekr.o)
 .bss           0x2003045c        0x0 d:/altera13.1/nios2eds/bin/gnu/h-i686-mingw32/bin/../lib/gcc/nios2-elf/4.7.3/../../../../../H-i686-mingw32/nios2-elf/lib\libc.a(lib_a-readr.o)
 .bss           0x2003045c        0x0 d:/altera13.1/nios2eds/bin/gnu/h-i686-mingw32/bin/../lib/gcc/nios2-elf/4.7.3\libgcc.a(_muldi3.o)
 .bss           0x2003045c        0x0 d:/altera13.1/nios2eds/bin/gnu/h-i686-mingw32/bin/../lib/gcc/nios2-elf/4.7.3\libgcc.a(_udivdi3.o)
 .bss           0x2003045c        0x0 d:/altera13.1/nios2eds/bin/gnu/h-i686-mingw32/bin/../lib/gcc/nios2-elf/4.7.3\libgcc.a(_umoddi3.o)
 .bss           0x2003045c        0x0 d:/altera13.1/nios2eds/bin/gnu/h-i686-mingw32/bin/../lib/gcc/nios2-elf/4.7.3\libgcc.a(_addsub_df.o)
 .bss           0x2003045c        0x0 d:/altera13.1/nios2eds/bin/gnu/h-i686-mingw32/bin/../lib/gcc/nios2-elf/4.7.3\libgcc.a(_mul_df.o)
 .bss           0x2003045c        0x0 d:/altera13.1/nios2eds/bin/gnu/h-i686-mingw32/bin/../lib/gcc/nios2-elf/4.7.3\libgcc.a(_div_df.o)
 .bss           0x2003045c        0x0 d:/altera13.1/nios2eds/bin/gnu/h-i686-mingw32/bin/../lib/gcc/nios2-elf/4.7.3\libgcc.a(_eq_df.o)
 .bss           0x2003045c        0x0 d:/altera13.1/nios2eds/bin/gnu/h-i686-mingw32/bin/../lib/gcc/nios2-elf/4.7.3\libgcc.a(_ne_df.o)
 .bss           0x2003045c        0x0 d:/altera13.1/nios2eds/bin/gnu/h-i686-mingw32/bin/../lib/gcc/nios2-elf/4.7.3\libgcc.a(_gt_df.o)
 .bss           0x2003045c        0x0 d:/altera13.1/nios2eds/bin/gnu/h-i686-mingw32/bin/../lib/gcc/nios2-elf/4.7.3\libgcc.a(_ge_df.o)
 .bss           0x2003045c        0x0 d:/altera13.1/nios2eds/bin/gnu/h-i686-mingw32/bin/../lib/gcc/nios2-elf/4.7.3\libgcc.a(_lt_df.o)
 .bss           0x2003045c        0x0 d:/altera13.1/nios2eds/bin/gnu/h-i686-mingw32/bin/../lib/gcc/nios2-elf/4.7.3\libgcc.a(_si_to_df.o)
 .bss           0x2003045c        0x0 d:/altera13.1/nios2eds/bin/gnu/h-i686-mingw32/bin/../lib/gcc/nios2-elf/4.7.3\libgcc.a(_df_to_si.o)
 .bss           0x2003045c        0x0 d:/altera13.1/nios2eds/bin/gnu/h-i686-mingw32/bin/../lib/gcc/nios2-elf/4.7.3\libgcc.a(_thenan_df.o)
 .bss           0x2003045c        0x0 d:/altera13.1/nios2eds/bin/gnu/h-i686-mingw32/bin/../lib/gcc/nios2-elf/4.7.3\libgcc.a(_usi_to_df.o)
 .bss           0x2003045c        0x0 d:/altera13.1/nios2eds/bin/gnu/h-i686-mingw32/bin/../lib/gcc/nios2-elf/4.7.3\libgcc.a(_clz.o)
 .bss           0x2003045c        0x0 d:/altera13.1/nios2eds/bin/gnu/h-i686-mingw32/bin/../lib/gcc/nios2-elf/4.7.3\libgcc.a(_clzsi2.o)
 .bss           0x2003045c        0x0 d:/altera13.1/nios2eds/bin/gnu/h-i686-mingw32/bin/../lib/gcc/nios2-elf/4.7.3\libgcc.a(_pack_df.o)
 .bss           0x2003045c        0x0 d:/altera13.1/nios2eds/bin/gnu/h-i686-mingw32/bin/../lib/gcc/nios2-elf/4.7.3\libgcc.a(_unpack_df.o)
 .bss           0x2003045c        0x0 d:/altera13.1/nios2eds/bin/gnu/h-i686-mingw32/bin/../lib/gcc/nios2-elf/4.7.3\libgcc.a(_fpcmp_parts_df.o)
 .bss           0x2003045c        0x0 d:/altera13.1/nios2eds/bin/gnu/h-i686-mingw32/bin/../lib/gcc/nios2-elf/4.7.3\libgcc.a(_lshrdi3.o)
 .bss           0x2003045c        0x0 d:/altera13.1/nios2eds/bin/gnu/h-i686-mingw32/bin/../lib/gcc/nios2-elf/4.7.3\libgcc.a(_ashldi3.o)
 .bss           0x2003045c        0x0 ../DE1_SoC_SDRAM_Nios_Test_bsp/\libhal_bsp.a(alt_close.o)
 .bss           0x2003045c        0x0 ../DE1_SoC_SDRAM_Nios_Test_bsp/\libhal_bsp.a(alt_dcache_flush_all.o)
 .bss           0x2003045c        0x0 ../DE1_SoC_SDRAM_Nios_Test_bsp/\libhal_bsp.a(alt_dev.o)
 .bss           0x2003045c        0x0 ../DE1_SoC_SDRAM_Nios_Test_bsp/\libhal_bsp.a(alt_errno.o)
 .bss           0x2003045c        0x0 ../DE1_SoC_SDRAM_Nios_Test_bsp/\libhal_bsp.a(alt_fstat.o)
 .bss           0x2003045c        0x0 ../DE1_SoC_SDRAM_Nios_Test_bsp/\libhal_bsp.a(alt_isatty.o)
 .bss           0x2003045c        0x0 ../DE1_SoC_SDRAM_Nios_Test_bsp/\libhal_bsp.a(alt_load.o)
 .bss           0x2003045c        0x0 ../DE1_SoC_SDRAM_Nios_Test_bsp/\libhal_bsp.a(alt_lseek.o)
 .bss           0x2003045c        0x0 ../DE1_SoC_SDRAM_Nios_Test_bsp/\libhal_bsp.a(alt_main.o)
 .bss           0x2003045c        0x0 ../DE1_SoC_SDRAM_Nios_Test_bsp/\libhal_bsp.a(alt_malloc_lock.o)
 .bss           0x2003045c        0x0 ../DE1_SoC_SDRAM_Nios_Test_bsp/\libhal_bsp.a(alt_read.o)
 .bss           0x2003045c        0x0 ../DE1_SoC_SDRAM_Nios_Test_bsp/\libhal_bsp.a(alt_release_fd.o)
 .bss           0x2003045c        0x0 ../DE1_SoC_SDRAM_Nios_Test_bsp/\libhal_bsp.a(alt_sbrk.o)
 .bss           0x2003045c        0x0 ../DE1_SoC_SDRAM_Nios_Test_bsp/\libhal_bsp.a(alt_tick.o)
 .bss           0x2003045c        0x0 ../DE1_SoC_SDRAM_Nios_Test_bsp/\libhal_bsp.a(alt_usleep.o)
 .bss           0x2003045c        0x0 ../DE1_SoC_SDRAM_Nios_Test_bsp/\libhal_bsp.a(alt_write.o)
 .bss           0x2003045c        0x0 ../DE1_SoC_SDRAM_Nios_Test_bsp/\libhal_bsp.a(alt_sys_init.o)
 .bss           0x2003045c        0x0 ../DE1_SoC_SDRAM_Nios_Test_bsp/\libhal_bsp.a(altera_avalon_jtag_uart_fd.o)
 .bss           0x2003045c        0x0 ../DE1_SoC_SDRAM_Nios_Test_bsp/\libhal_bsp.a(altera_avalon_jtag_uart_init.o)
 .bss           0x2003045c        0x0 ../DE1_SoC_SDRAM_Nios_Test_bsp/\libhal_bsp.a(altera_avalon_jtag_uart_ioctl.o)
 .bss           0x2003045c        0x0 ../DE1_SoC_SDRAM_Nios_Test_bsp/\libhal_bsp.a(altera_avalon_jtag_uart_read.o)
 .bss           0x2003045c        0x0 ../DE1_SoC_SDRAM_Nios_Test_bsp/\libhal_bsp.a(altera_avalon_jtag_uart_write.o)
 .bss           0x2003045c        0x0 ../DE1_SoC_SDRAM_Nios_Test_bsp/\libhal_bsp.a(altera_avalon_timer_sc.o)
 .bss           0x2003045c        0x0 ../DE1_SoC_SDRAM_Nios_Test_bsp/\libhal_bsp.a(alt_alarm_start.o)
 .bss           0x2003045c        0x0 ../DE1_SoC_SDRAM_Nios_Test_bsp/\libhal_bsp.a(alt_busy_sleep.o)
 .bss           0x2003045c        0x0 ../DE1_SoC_SDRAM_Nios_Test_bsp/\libhal_bsp.a(alt_dev_llist_insert.o)
 .bss           0x2003045c        0x0 ../DE1_SoC_SDRAM_Nios_Test_bsp/\libhal_bsp.a(alt_do_ctors.o)
 .bss           0x2003045c        0x0 ../DE1_SoC_SDRAM_Nios_Test_bsp/\libhal_bsp.a(alt_do_dtors.o)
 .bss           0x2003045c        0x0 ../DE1_SoC_SDRAM_Nios_Test_bsp/\libhal_bsp.a(alt_icache_flush_all.o)
 .bss           0x2003045c        0x0 ../DE1_SoC_SDRAM_Nios_Test_bsp/\libhal_bsp.a(alt_iic.o)
 .bss           0x2003045c        0x0 ../DE1_SoC_SDRAM_Nios_Test_bsp/\libhal_bsp.a(alt_iic_isr_register.o)
 .bss           0x2003045c        0x0 ../DE1_SoC_SDRAM_Nios_Test_bsp/\libhal_bsp.a(alt_io_redirect.o)
 .bss           0x2003045c        0x0 ../DE1_SoC_SDRAM_Nios_Test_bsp/\libhal_bsp.a(alt_irq_entry.o)
 .bss           0x2003045c        0x0 ../DE1_SoC_SDRAM_Nios_Test_bsp/\libhal_bsp.a(alt_irq_handler.o)
 .bss           0x2003045c        0x0 ../DE1_SoC_SDRAM_Nios_Test_bsp/\libhal_bsp.a(alt_irq_vars.o)
 .bss           0x2003045c        0x0 ../DE1_SoC_SDRAM_Nios_Test_bsp/\libhal_bsp.a(alt_open.o)
 .bss           0x2003045c        0x0 ../DE1_SoC_SDRAM_Nios_Test_bsp/\libhal_bsp.a(altera_nios2_qsys_irq.o)
 .bss           0x2003045c        0x0 ../DE1_SoC_SDRAM_Nios_Test_bsp/\libhal_bsp.a(alt_exception_entry.o)
 .bss           0x2003045c        0x0 ../DE1_SoC_SDRAM_Nios_Test_bsp/\libhal_bsp.a(alt_find_dev.o)
 .bss           0x2003045c        0x0 ../DE1_SoC_SDRAM_Nios_Test_bsp/\libhal_bsp.a(alt_find_file.o)
 .bss           0x2003045c        0x0 ../DE1_SoC_SDRAM_Nios_Test_bsp/\libhal_bsp.a(alt_get_fd.o)
 .bss           0x2003045c        0x0 ../DE1_SoC_SDRAM_Nios_Test_bsp/\libhal_bsp.a(alt_icache_flush.o)
 .bss           0x2003045c        0x0 d:/altera13.1/nios2eds/bin/gnu/h-i686-mingw32/bin/../lib/gcc/nios2-elf/4.7.3/../../../../../H-i686-mingw32/nios2-elf/lib\libc.a(lib_a-atexit.o)
 .bss           0x2003045c        0x0 d:/altera13.1/nios2eds/bin/gnu/h-i686-mingw32/bin/../lib/gcc/nios2-elf/4.7.3/../../../../../H-i686-mingw32/nios2-elf/lib\libc.a(lib_a-exit.o)
 .bss           0x2003045c        0x0 d:/altera13.1/nios2eds/bin/gnu/h-i686-mingw32/bin/../lib/gcc/nios2-elf/4.7.3/../../../../../H-i686-mingw32/nios2-elf/lib\libc.a(lib_a-memcmp.o)
 .bss           0x2003045c        0x0 d:/altera13.1/nios2eds/bin/gnu/h-i686-mingw32/bin/../lib/gcc/nios2-elf/4.7.3/../../../../../H-i686-mingw32/nios2-elf/lib\libc.a(lib_a-__atexit.o)
 .bss           0x2003045c        0x0 d:/altera13.1/nios2eds/bin/gnu/h-i686-mingw32/bin/../lib/gcc/nios2-elf/4.7.3/../../../../../H-i686-mingw32/nios2-elf/lib\libc.a(lib_a-__call_atexit.o)
 .bss           0x2003045c        0x0 ../DE1_SoC_SDRAM_Nios_Test_bsp/\libhal_bsp.a(alt_exit.o)
 *(COMMON)
 COMMON         0x2003045c      0x100 ../DE1_SoC_SDRAM_Nios_Test_bsp/\libhal_bsp.a(alt_irq_handler.o)
                0x2003045c                alt_irq
 COMMON         0x2003055c      0x190 d:/altera13.1/nios2eds/bin/gnu/h-i686-mingw32/bin/../lib/gcc/nios2-elf/4.7.3/../../../../../H-i686-mingw32/nios2-elf/lib\libc.a(lib_a-atexit.o)
                0x2003055c                _atexit0
                0x200306ec                . = ALIGN (0x4)
                0x200306ec                __bss_end = ABSOLUTE (.)

.sdram          0x00000000        0x0 load address 0x200306ec
                0x00000000                PROVIDE (_alt_partition_sdram_start, ABSOLUTE (.))
 *(.sdram .sdram. sdram.*)
                0x00000000                . = ALIGN (0x4)
                0x00000000                PROVIDE (_alt_partition_sdram_end, ABSOLUTE (.))
                0x200306ec                PROVIDE (_alt_partition_sdram_load_addr, LOADADDR (.sdram))

.onchip_memory2
                0x200306ec        0x0
                0x200306ec                PROVIDE (_alt_partition_onchip_memory2_start, ABSOLUTE (.))
 *(.onchip_memory2 .onchip_memory2. onchip_memory2.*)
                0x200306ec                . = ALIGN (0x4)
                0x200306ec                PROVIDE (_alt_partition_onchip_memory2_end, ABSOLUTE (.))
                0x200306ec                _end = ABSOLUTE (.)
                0x200306ec                end = ABSOLUTE (.)
                0x200306ec                __alt_stack_base = ABSOLUTE (.)
                0x200306ec                PROVIDE (_alt_partition_onchip_memory2_load_addr, LOADADDR (.onchip_memory2))

.stab
 *(.stab)

.stabstr
 *(.stabstr)

.stab.excl
 *(.stab.excl)

.stab.exclstr
 *(.stab.exclstr)

.stab.index
 *(.stab.index)

.stab.indexstr
 *(.stab.indexstr)

.comment        0x00000000       0x23
 *(.comment)
 .comment       0x00000000       0x23 obj/default/main.o
                                 0x24 (size before relaxing)
 .comment       0x00000000       0x24 obj/default/mem_verify.o
 .comment       0x00000000       0x24 d:/altera13.1/nios2eds/bin/gnu/h-i686-mingw32/bin/../lib/gcc/nios2-elf/4.7.3\libgcc.a(lib2-divmod.o)
 .comment       0x00000000       0x24 d:/altera13.1/nios2eds/bin/gnu/h-i686-mingw32/bin/../lib/gcc/nios2-elf/4.7.3/../../../../../H-i686-mingw32/nios2-elf/lib\libc.a(lib_a-memcpy.o)
 .comment       0x00000000       0x24 d:/altera13.1/nios2eds/bin/gnu/h-i686-mingw32/bin/../lib/gcc/nios2-elf/4.7.3/../../../../../H-i686-mingw32/nios2-elf/lib\libc.a(lib_a-printf.o)
 .comment       0x00000000       0x24 d:/altera13.1/nios2eds/bin/gnu/h-i686-mingw32/bin/../lib/gcc/nios2-elf/4.7.3/../../../../../H-i686-mingw32/nios2-elf/lib\libc.a(lib_a-putchar.o)
 .comment       0x00000000       0x24 d:/altera13.1/nios2eds/bin/gnu/h-i686-mingw32/bin/../lib/gcc/nios2-elf/4.7.3/../../../../../H-i686-mingw32/nios2-elf/lib\libc.a(lib_a-puts.o)
 .comment       0x00000000       0x24 d:/altera13.1/nios2eds/bin/gnu/h-i686-mingw32/bin/../lib/gcc/nios2-elf/4.7.3/../../../../../H-i686-mingw32/nios2-elf/lib\libc.a(lib_a-rand.o)
 .comment       0x00000000       0x24 d:/altera13.1/nios2eds/bin/gnu/h-i686-mingw32/bin/../lib/gcc/nios2-elf/4.7.3/../../../../../H-i686-mingw32/nios2-elf/lib\libc.a(lib_a-strlen.o)
 .comment       0x00000000       0x24 d:/altera13.1/nios2eds/bin/gnu/h-i686-mingw32/bin/../lib/gcc/nios2-elf/4.7.3/../../../../../H-i686-mingw32/nios2-elf/lib\libc.a(lib_a-vfprintf.o)
 .comment       0x00000000       0x24 d:/altera13.1/nios2eds/bin/gnu/h-i686-mingw32/bin/../lib/gcc/nios2-elf/4.7.3/../../../../../H-i686-mingw32/nios2-elf/lib\libc.a(lib_a-wsetup.o)
 .comment       0x00000000       0x24 d:/altera13.1/nios2eds/bin/gnu/h-i686-mingw32/bin/../lib/gcc/nios2-elf/4.7.3/../../../../../H-i686-mingw32/nios2-elf/lib\libc.a(lib_a-dtoa.o)
 .comment       0x00000000       0x24 d:/altera13.1/nios2eds/bin/gnu/h-i686-mingw32/bin/../lib/gcc/nios2-elf/4.7.3/../../../../../H-i686-mingw32/nios2-elf/lib\libc.a(lib_a-fflush.o)
 .comment       0x00000000       0x24 d:/altera13.1/nios2eds/bin/gnu/h-i686-mingw32/bin/../lib/gcc/nios2-elf/4.7.3/../../../../../H-i686-mingw32/nios2-elf/lib\libc.a(lib_a-findfp.o)
 .comment       0x00000000       0x24 d:/altera13.1/nios2eds/bin/gnu/h-i686-mingw32/bin/../lib/gcc/nios2-elf/4.7.3/../../../../../H-i686-mingw32/nios2-elf/lib\libc.a(lib_a-freer.o)
 .comment       0x00000000       0x24 d:/altera13.1/nios2eds/bin/gnu/h-i686-mingw32/bin/../lib/gcc/nios2-elf/4.7.3/../../../../../H-i686-mingw32/nios2-elf/lib\libc.a(lib_a-fvwrite.o)
 .comment       0x00000000       0x24 d:/altera13.1/nios2eds/bin/gnu/h-i686-mingw32/bin/../lib/gcc/nios2-elf/4.7.3/../../../../../H-i686-mingw32/nios2-elf/lib\libc.a(lib_a-fwalk.o)
 .comment       0x00000000       0x24 d:/altera13.1/nios2eds/bin/gnu/h-i686-mingw32/bin/../lib/gcc/nios2-elf/4.7.3/../../../../../H-i686-mingw32/nios2-elf/lib\libc.a(lib_a-impure.o)
 .comment       0x00000000       0x24 d:/altera13.1/nios2eds/bin/gnu/h-i686-mingw32/bin/../lib/gcc/nios2-elf/4.7.3/../../../../../H-i686-mingw32/nios2-elf/lib\libc.a(lib_a-locale.o)
 .comment       0x00000000       0x24 d:/altera13.1/nios2eds/bin/gnu/h-i686-mingw32/bin/../lib/gcc/nios2-elf/4.7.3/../../../../../H-i686-mingw32/nios2-elf/lib\libc.a(lib_a-makebuf.o)
 .comment       0x00000000       0x24 d:/altera13.1/nios2eds/bin/gnu/h-i686-mingw32/bin/../lib/gcc/nios2-elf/4.7.3/../../../../../H-i686-mingw32/nios2-elf/lib\libc.a(lib_a-mallocr.o)
 .comment       0x00000000       0x24 d:/altera13.1/nios2eds/bin/gnu/h-i686-mingw32/bin/../lib/gcc/nios2-elf/4.7.3/../../../../../H-i686-mingw32/nios2-elf/lib\libc.a(lib_a-memchr.o)
 .comment       0x00000000       0x24 d:/altera13.1/nios2eds/bin/gnu/h-i686-mingw32/bin/../lib/gcc/nios2-elf/4.7.3/../../../../../H-i686-mingw32/nios2-elf/lib\libc.a(lib_a-memmove.o)
 .comment       0x00000000       0x24 d:/altera13.1/nios2eds/bin/gnu/h-i686-mingw32/bin/../lib/gcc/nios2-elf/4.7.3/../../../../../H-i686-mingw32/nios2-elf/lib\libc.a(lib_a-memset.o)
 .comment       0x00000000       0x24 d:/altera13.1/nios2eds/bin/gnu/h-i686-mingw32/bin/../lib/gcc/nios2-elf/4.7.3/../../../../../H-i686-mingw32/nios2-elf/lib\libc.a(lib_a-mprec.o)
 .comment       0x00000000       0x24 d:/altera13.1/nios2eds/bin/gnu/h-i686-mingw32/bin/../lib/gcc/nios2-elf/4.7.3/../../../../../H-i686-mingw32/nios2-elf/lib\libc.a(lib_a-putc.o)
 .comment       0x00000000       0x24 d:/altera13.1/nios2eds/bin/gnu/h-i686-mingw32/bin/../lib/gcc/nios2-elf/4.7.3/../../../../../H-i686-mingw32/nios2-elf/lib\libc.a(lib_a-reallocr.o)
 .comment       0x00000000       0x24 d:/altera13.1/nios2eds/bin/gnu/h-i686-mingw32/bin/../lib/gcc/nios2-elf/4.7.3/../../../../../H-i686-mingw32/nios2-elf/lib\libc.a(lib_a-s_isinfd.o)
 .comment       0x00000000       0x24 d:/altera13.1/nios2eds/bin/gnu/h-i686-mingw32/bin/../lib/gcc/nios2-elf/4.7.3/../../../../../H-i686-mingw32/nios2-elf/lib\libc.a(lib_a-s_isnand.o)
 .comment       0x00000000       0x24 d:/altera13.1/nios2eds/bin/gnu/h-i686-mingw32/bin/../lib/gcc/nios2-elf/4.7.3/../../../../../H-i686-mingw32/nios2-elf/lib\libc.a(lib_a-sbrkr.o)
 .comment       0x00000000       0x24 d:/altera13.1/nios2eds/bin/gnu/h-i686-mingw32/bin/../lib/gcc/nios2-elf/4.7.3/../../../../../H-i686-mingw32/nios2-elf/lib\libc.a(lib_a-stdio.o)
 .comment       0x00000000       0x24 d:/altera13.1/nios2eds/bin/gnu/h-i686-mingw32/bin/../lib/gcc/nios2-elf/4.7.3/../../../../../H-i686-mingw32/nios2-elf/lib\libc.a(lib_a-strcmp.o)
 .comment       0x00000000       0x24 d:/altera13.1/nios2eds/bin/gnu/h-i686-mingw32/bin/../lib/gcc/nios2-elf/4.7.3/../../../../../H-i686-mingw32/nios2-elf/lib\libc.a(lib_a-wbuf.o)
 .comment       0x00000000       0x24 d:/altera13.1/nios2eds/bin/gnu/h-i686-mingw32/bin/../lib/gcc/nios2-elf/4.7.3/../../../../../H-i686-mingw32/nios2-elf/lib\libc.a(lib_a-writer.o)
 .comment       0x00000000       0x24 d:/altera13.1/nios2eds/bin/gnu/h-i686-mingw32/bin/../lib/gcc/nios2-elf/4.7.3/../../../../../H-i686-mingw32/nios2-elf/lib\libc.a(lib_a-callocr.o)
 .comment       0x00000000       0x24 d:/altera13.1/nios2eds/bin/gnu/h-i686-mingw32/bin/../lib/gcc/nios2-elf/4.7.3/../../../../../H-i686-mingw32/nios2-elf/lib\libc.a(lib_a-closer.o)
 .comment       0x00000000       0x24 d:/altera13.1/nios2eds/bin/gnu/h-i686-mingw32/bin/../lib/gcc/nios2-elf/4.7.3/../../../../../H-i686-mingw32/nios2-elf/lib\libc.a(lib_a-fclose.o)
 .comment       0x00000000       0x24 d:/altera13.1/nios2eds/bin/gnu/h-i686-mingw32/bin/../lib/gcc/nios2-elf/4.7.3/../../../../../H-i686-mingw32/nios2-elf/lib\libc.a(lib_a-fstatr.o)
 .comment       0x00000000       0x24 d:/altera13.1/nios2eds/bin/gnu/h-i686-mingw32/bin/../lib/gcc/nios2-elf/4.7.3/../../../../../H-i686-mingw32/nios2-elf/lib\libc.a(lib_a-int_errno.o)
 .comment       0x00000000       0x24 d:/altera13.1/nios2eds/bin/gnu/h-i686-mingw32/bin/../lib/gcc/nios2-elf/4.7.3/../../../../../H-i686-mingw32/nios2-elf/lib\libc.a(lib_a-isattyr.o)
 .comment       0x00000000       0x24 d:/altera13.1/nios2eds/bin/gnu/h-i686-mingw32/bin/../lib/gcc/nios2-elf/4.7.3/../../../../../H-i686-mingw32/nios2-elf/lib\libc.a(lib_a-lseekr.o)
 .comment       0x00000000       0x24 d:/altera13.1/nios2eds/bin/gnu/h-i686-mingw32/bin/../lib/gcc/nios2-elf/4.7.3/../../../../../H-i686-mingw32/nios2-elf/lib\libc.a(lib_a-readr.o)
 .comment       0x00000000       0x24 d:/altera13.1/nios2eds/bin/gnu/h-i686-mingw32/bin/../lib/gcc/nios2-elf/4.7.3\libgcc.a(_muldi3.o)
 .comment       0x00000000       0x24 d:/altera13.1/nios2eds/bin/gnu/h-i686-mingw32/bin/../lib/gcc/nios2-elf/4.7.3\libgcc.a(_udivdi3.o)
 .comment       0x00000000       0x24 d:/altera13.1/nios2eds/bin/gnu/h-i686-mingw32/bin/../lib/gcc/nios2-elf/4.7.3\libgcc.a(_umoddi3.o)
 .comment       0x00000000       0x24 d:/altera13.1/nios2eds/bin/gnu/h-i686-mingw32/bin/../lib/gcc/nios2-elf/4.7.3\libgcc.a(_addsub_df.o)
 .comment       0x00000000       0x24 d:/altera13.1/nios2eds/bin/gnu/h-i686-mingw32/bin/../lib/gcc/nios2-elf/4.7.3\libgcc.a(_mul_df.o)
 .comment       0x00000000       0x24 d:/altera13.1/nios2eds/bin/gnu/h-i686-mingw32/bin/../lib/gcc/nios2-elf/4.7.3\libgcc.a(_div_df.o)
 .comment       0x00000000       0x24 d:/altera13.1/nios2eds/bin/gnu/h-i686-mingw32/bin/../lib/gcc/nios2-elf/4.7.3\libgcc.a(_eq_df.o)
 .comment       0x00000000       0x24 d:/altera13.1/nios2eds/bin/gnu/h-i686-mingw32/bin/../lib/gcc/nios2-elf/4.7.3\libgcc.a(_ne_df.o)
 .comment       0x00000000       0x24 d:/altera13.1/nios2eds/bin/gnu/h-i686-mingw32/bin/../lib/gcc/nios2-elf/4.7.3\libgcc.a(_gt_df.o)
 .comment       0x00000000       0x24 d:/altera13.1/nios2eds/bin/gnu/h-i686-mingw32/bin/../lib/gcc/nios2-elf/4.7.3\libgcc.a(_ge_df.o)
 .comment       0x00000000       0x24 d:/altera13.1/nios2eds/bin/gnu/h-i686-mingw32/bin/../lib/gcc/nios2-elf/4.7.3\libgcc.a(_lt_df.o)
 .comment       0x00000000       0x24 d:/altera13.1/nios2eds/bin/gnu/h-i686-mingw32/bin/../lib/gcc/nios2-elf/4.7.3\libgcc.a(_si_to_df.o)
 .comment       0x00000000       0x24 d:/altera13.1/nios2eds/bin/gnu/h-i686-mingw32/bin/../lib/gcc/nios2-elf/4.7.3\libgcc.a(_df_to_si.o)
 .comment       0x00000000       0x24 d:/altera13.1/nios2eds/bin/gnu/h-i686-mingw32/bin/../lib/gcc/nios2-elf/4.7.3\libgcc.a(_thenan_df.o)
 .comment       0x00000000       0x24 d:/altera13.1/nios2eds/bin/gnu/h-i686-mingw32/bin/../lib/gcc/nios2-elf/4.7.3\libgcc.a(_usi_to_df.o)
 .comment       0x00000000       0x24 d:/altera13.1/nios2eds/bin/gnu/h-i686-mingw32/bin/../lib/gcc/nios2-elf/4.7.3\libgcc.a(_clz.o)
 .comment       0x00000000       0x24 d:/altera13.1/nios2eds/bin/gnu/h-i686-mingw32/bin/../lib/gcc/nios2-elf/4.7.3\libgcc.a(_clzsi2.o)
 .comment       0x00000000       0x24 d:/altera13.1/nios2eds/bin/gnu/h-i686-mingw32/bin/../lib/gcc/nios2-elf/4.7.3\libgcc.a(_pack_df.o)
 .comment       0x00000000       0x24 d:/altera13.1/nios2eds/bin/gnu/h-i686-mingw32/bin/../lib/gcc/nios2-elf/4.7.3\libgcc.a(_unpack_df.o)
 .comment       0x00000000       0x24 d:/altera13.1/nios2eds/bin/gnu/h-i686-mingw32/bin/../lib/gcc/nios2-elf/4.7.3\libgcc.a(_fpcmp_parts_df.o)
 .comment       0x00000000       0x24 d:/altera13.1/nios2eds/bin/gnu/h-i686-mingw32/bin/../lib/gcc/nios2-elf/4.7.3\libgcc.a(_lshrdi3.o)
 .comment       0x00000000       0x24 d:/altera13.1/nios2eds/bin/gnu/h-i686-mingw32/bin/../lib/gcc/nios2-elf/4.7.3\libgcc.a(_ashldi3.o)
 .comment       0x00000000       0x24 ../DE1_SoC_SDRAM_Nios_Test_bsp/\libhal_bsp.a(alt_close.o)
 .comment       0x00000000       0x24 ../DE1_SoC_SDRAM_Nios_Test_bsp/\libhal_bsp.a(alt_dcache_flush_all.o)
 .comment       0x00000000       0x24 ../DE1_SoC_SDRAM_Nios_Test_bsp/\libhal_bsp.a(alt_dev.o)
 .comment       0x00000000       0x24 ../DE1_SoC_SDRAM_Nios_Test_bsp/\libhal_bsp.a(alt_errno.o)
 .comment       0x00000000       0x24 ../DE1_SoC_SDRAM_Nios_Test_bsp/\libhal_bsp.a(alt_fstat.o)
 .comment       0x00000000       0x24 ../DE1_SoC_SDRAM_Nios_Test_bsp/\libhal_bsp.a(alt_isatty.o)
 .comment       0x00000000       0x24 ../DE1_SoC_SDRAM_Nios_Test_bsp/\libhal_bsp.a(alt_load.o)
 .comment       0x00000000       0x24 ../DE1_SoC_SDRAM_Nios_Test_bsp/\libhal_bsp.a(alt_lseek.o)
 .comment       0x00000000       0x24 ../DE1_SoC_SDRAM_Nios_Test_bsp/\libhal_bsp.a(alt_main.o)
 .comment       0x00000000       0x24 ../DE1_SoC_SDRAM_Nios_Test_bsp/\libhal_bsp.a(alt_malloc_lock.o)
 .comment       0x00000000       0x24 ../DE1_SoC_SDRAM_Nios_Test_bsp/\libhal_bsp.a(alt_read.o)
 .comment       0x00000000       0x24 ../DE1_SoC_SDRAM_Nios_Test_bsp/\libhal_bsp.a(alt_release_fd.o)
 .comment       0x00000000       0x24 ../DE1_SoC_SDRAM_Nios_Test_bsp/\libhal_bsp.a(alt_sbrk.o)
 .comment       0x00000000       0x24 ../DE1_SoC_SDRAM_Nios_Test_bsp/\libhal_bsp.a(alt_tick.o)
 .comment       0x00000000       0x24 ../DE1_SoC_SDRAM_Nios_Test_bsp/\libhal_bsp.a(alt_usleep.o)
 .comment       0x00000000       0x24 ../DE1_SoC_SDRAM_Nios_Test_bsp/\libhal_bsp.a(alt_write.o)
 .comment       0x00000000       0x24 ../DE1_SoC_SDRAM_Nios_Test_bsp/\libhal_bsp.a(alt_sys_init.o)
 .comment       0x00000000       0x24 ../DE1_SoC_SDRAM_Nios_Test_bsp/\libhal_bsp.a(altera_avalon_jtag_uart_fd.o)
 .comment       0x00000000       0x24 ../DE1_SoC_SDRAM_Nios_Test_bsp/\libhal_bsp.a(altera_avalon_jtag_uart_init.o)
 .comment       0x00000000       0x24 ../DE1_SoC_SDRAM_Nios_Test_bsp/\libhal_bsp.a(altera_avalon_jtag_uart_ioctl.o)
 .comment       0x00000000       0x24 ../DE1_SoC_SDRAM_Nios_Test_bsp/\libhal_bsp.a(altera_avalon_jtag_uart_read.o)
 .comment       0x00000000       0x24 ../DE1_SoC_SDRAM_Nios_Test_bsp/\libhal_bsp.a(altera_avalon_jtag_uart_write.o)
 .comment       0x00000000       0x24 ../DE1_SoC_SDRAM_Nios_Test_bsp/\libhal_bsp.a(altera_avalon_timer_sc.o)
 .comment       0x00000000       0x24 ../DE1_SoC_SDRAM_Nios_Test_bsp/\libhal_bsp.a(alt_alarm_start.o)
 .comment       0x00000000       0x24 ../DE1_SoC_SDRAM_Nios_Test_bsp/\libhal_bsp.a(alt_busy_sleep.o)
 .comment       0x00000000       0x24 ../DE1_SoC_SDRAM_Nios_Test_bsp/\libhal_bsp.a(alt_dev_llist_insert.o)
 .comment       0x00000000       0x24 ../DE1_SoC_SDRAM_Nios_Test_bsp/\libhal_bsp.a(alt_do_ctors.o)
 .comment       0x00000000       0x24 ../DE1_SoC_SDRAM_Nios_Test_bsp/\libhal_bsp.a(alt_do_dtors.o)
 .comment       0x00000000       0x24 ../DE1_SoC_SDRAM_Nios_Test_bsp/\libhal_bsp.a(alt_icache_flush_all.o)
 .comment       0x00000000       0x24 ../DE1_SoC_SDRAM_Nios_Test_bsp/\libhal_bsp.a(alt_iic.o)
 .comment       0x00000000       0x24 ../DE1_SoC_SDRAM_Nios_Test_bsp/\libhal_bsp.a(alt_iic_isr_register.o)
 .comment       0x00000000       0x24 ../DE1_SoC_SDRAM_Nios_Test_bsp/\libhal_bsp.a(alt_io_redirect.o)
 .comment       0x00000000       0x24 ../DE1_SoC_SDRAM_Nios_Test_bsp/\libhal_bsp.a(alt_irq_handler.o)
 .comment       0x00000000       0x24 ../DE1_SoC_SDRAM_Nios_Test_bsp/\libhal_bsp.a(alt_irq_vars.o)
 .comment       0x00000000       0x24 ../DE1_SoC_SDRAM_Nios_Test_bsp/\libhal_bsp.a(alt_open.o)
 .comment       0x00000000       0x24 ../DE1_SoC_SDRAM_Nios_Test_bsp/\libhal_bsp.a(altera_nios2_qsys_irq.o)
 .comment       0x00000000       0x24 ../DE1_SoC_SDRAM_Nios_Test_bsp/\libhal_bsp.a(alt_find_dev.o)
 .comment       0x00000000       0x24 ../DE1_SoC_SDRAM_Nios_Test_bsp/\libhal_bsp.a(alt_find_file.o)
 .comment       0x00000000       0x24 ../DE1_SoC_SDRAM_Nios_Test_bsp/\libhal_bsp.a(alt_get_fd.o)
 .comment       0x00000000       0x24 ../DE1_SoC_SDRAM_Nios_Test_bsp/\libhal_bsp.a(alt_icache_flush.o)
 .comment       0x00000000       0x24 d:/altera13.1/nios2eds/bin/gnu/h-i686-mingw32/bin/../lib/gcc/nios2-elf/4.7.3/../../../../../H-i686-mingw32/nios2-elf/lib\libc.a(lib_a-atexit.o)
 .comment       0x00000000       0x24 d:/altera13.1/nios2eds/bin/gnu/h-i686-mingw32/bin/../lib/gcc/nios2-elf/4.7.3/../../../../../H-i686-mingw32/nios2-elf/lib\libc.a(lib_a-exit.o)
 .comment       0x00000000       0x24 d:/altera13.1/nios2eds/bin/gnu/h-i686-mingw32/bin/../lib/gcc/nios2-elf/4.7.3/../../../../../H-i686-mingw32/nios2-elf/lib\libc.a(lib_a-memcmp.o)
 .comment       0x00000000       0x24 d:/altera13.1/nios2eds/bin/gnu/h-i686-mingw32/bin/../lib/gcc/nios2-elf/4.7.3/../../../../../H-i686-mingw32/nios2-elf/lib\libc.a(lib_a-__atexit.o)
 .comment       0x00000000       0x24 d:/altera13.1/nios2eds/bin/gnu/h-i686-mingw32/bin/../lib/gcc/nios2-elf/4.7.3/../../../../../H-i686-mingw32/nios2-elf/lib\libc.a(lib_a-__call_atexit.o)
 .comment       0x00000000       0x24 ../DE1_SoC_SDRAM_Nios_Test_bsp/\libhal_bsp.a(alt_exit.o)

.debug
 *(.debug)

.line
 *(.line)

.debug_srcinfo
 *(.debug_srcinfo)

.debug_sfnames
 *(.debug_sfnames)

.debug_aranges  0x00000000      0xe20
 *(.debug_aranges)
 .debug_aranges
                0x00000000       0x28 ../DE1_SoC_SDRAM_Nios_Test_bsp//obj/HAL/src/crt0.o
 .debug_aranges
                0x00000028       0x20 obj/default/main.o
 .debug_aranges
                0x00000048       0x20 obj/default/mem_verify.o
 .debug_aranges
                0x00000068       0x20 d:/altera13.1/nios2eds/bin/gnu/h-i686-mingw32/bin/../lib/gcc/nios2-elf/4.7.3\libgcc.a(lib2-divmod.o)
 .debug_aranges
                0x00000088       0x20 d:/altera13.1/nios2eds/bin/gnu/h-i686-mingw32/bin/../lib/gcc/nios2-elf/4.7.3/../../../../../H-i686-mingw32/nios2-elf/lib\libc.a(lib_a-memcpy.o)
 .debug_aranges
                0x000000a8       0x20 d:/altera13.1/nios2eds/bin/gnu/h-i686-mingw32/bin/../lib/gcc/nios2-elf/4.7.3/../../../../../H-i686-mingw32/nios2-elf/lib\libc.a(lib_a-printf.o)
 .debug_aranges
                0x000000c8       0x20 d:/altera13.1/nios2eds/bin/gnu/h-i686-mingw32/bin/../lib/gcc/nios2-elf/4.7.3/../../../../../H-i686-mingw32/nios2-elf/lib\libc.a(lib_a-putchar.o)
 .debug_aranges
                0x000000e8       0x20 d:/altera13.1/nios2eds/bin/gnu/h-i686-mingw32/bin/../lib/gcc/nios2-elf/4.7.3/../../../../../H-i686-mingw32/nios2-elf/lib\libc.a(lib_a-puts.o)
 .debug_aranges
                0x00000108       0x20 d:/altera13.1/nios2eds/bin/gnu/h-i686-mingw32/bin/../lib/gcc/nios2-elf/4.7.3/../../../../../H-i686-mingw32/nios2-elf/lib\libc.a(lib_a-rand.o)
 .debug_aranges
                0x00000128       0x20 d:/altera13.1/nios2eds/bin/gnu/h-i686-mingw32/bin/../lib/gcc/nios2-elf/4.7.3/../../../../../H-i686-mingw32/nios2-elf/lib\libc.a(lib_a-strlen.o)
 .debug_aranges
                0x00000148       0x20 d:/altera13.1/nios2eds/bin/gnu/h-i686-mingw32/bin/../lib/gcc/nios2-elf/4.7.3/../../../../../H-i686-mingw32/nios2-elf/lib\libc.a(lib_a-vfprintf.o)
 .debug_aranges
                0x00000168       0x20 d:/altera13.1/nios2eds/bin/gnu/h-i686-mingw32/bin/../lib/gcc/nios2-elf/4.7.3/../../../../../H-i686-mingw32/nios2-elf/lib\libc.a(lib_a-wsetup.o)
 .debug_aranges
                0x00000188       0x20 d:/altera13.1/nios2eds/bin/gnu/h-i686-mingw32/bin/../lib/gcc/nios2-elf/4.7.3/../../../../../H-i686-mingw32/nios2-elf/lib\libc.a(lib_a-dtoa.o)
 .debug_aranges
                0x000001a8       0x20 d:/altera13.1/nios2eds/bin/gnu/h-i686-mingw32/bin/../lib/gcc/nios2-elf/4.7.3/../../../../../H-i686-mingw32/nios2-elf/lib\libc.a(lib_a-fflush.o)
 .debug_aranges
                0x000001c8       0x20 d:/altera13.1/nios2eds/bin/gnu/h-i686-mingw32/bin/../lib/gcc/nios2-elf/4.7.3/../../../../../H-i686-mingw32/nios2-elf/lib\libc.a(lib_a-findfp.o)
 .debug_aranges
                0x000001e8       0x20 d:/altera13.1/nios2eds/bin/gnu/h-i686-mingw32/bin/../lib/gcc/nios2-elf/4.7.3/../../../../../H-i686-mingw32/nios2-elf/lib\libc.a(lib_a-freer.o)
 .debug_aranges
                0x00000208       0x20 d:/altera13.1/nios2eds/bin/gnu/h-i686-mingw32/bin/../lib/gcc/nios2-elf/4.7.3/../../../../../H-i686-mingw32/nios2-elf/lib\libc.a(lib_a-fvwrite.o)
 .debug_aranges
                0x00000228       0x20 d:/altera13.1/nios2eds/bin/gnu/h-i686-mingw32/bin/../lib/gcc/nios2-elf/4.7.3/../../../../../H-i686-mingw32/nios2-elf/lib\libc.a(lib_a-fwalk.o)
 .debug_aranges
                0x00000248       0x18 d:/altera13.1/nios2eds/bin/gnu/h-i686-mingw32/bin/../lib/gcc/nios2-elf/4.7.3/../../../../../H-i686-mingw32/nios2-elf/lib\libc.a(lib_a-impure.o)
 .debug_aranges
                0x00000260       0x20 d:/altera13.1/nios2eds/bin/gnu/h-i686-mingw32/bin/../lib/gcc/nios2-elf/4.7.3/../../../../../H-i686-mingw32/nios2-elf/lib\libc.a(lib_a-locale.o)
 .debug_aranges
                0x00000280       0x20 d:/altera13.1/nios2eds/bin/gnu/h-i686-mingw32/bin/../lib/gcc/nios2-elf/4.7.3/../../../../../H-i686-mingw32/nios2-elf/lib\libc.a(lib_a-makebuf.o)
 .debug_aranges
                0x000002a0       0x20 d:/altera13.1/nios2eds/bin/gnu/h-i686-mingw32/bin/../lib/gcc/nios2-elf/4.7.3/../../../../../H-i686-mingw32/nios2-elf/lib\libc.a(lib_a-mallocr.o)
 .debug_aranges
                0x000002c0       0x20 d:/altera13.1/nios2eds/bin/gnu/h-i686-mingw32/bin/../lib/gcc/nios2-elf/4.7.3/../../../../../H-i686-mingw32/nios2-elf/lib\libc.a(lib_a-memchr.o)
 .debug_aranges
                0x000002e0       0x20 d:/altera13.1/nios2eds/bin/gnu/h-i686-mingw32/bin/../lib/gcc/nios2-elf/4.7.3/../../../../../H-i686-mingw32/nios2-elf/lib\libc.a(lib_a-memmove.o)
 .debug_aranges
                0x00000300       0x20 d:/altera13.1/nios2eds/bin/gnu/h-i686-mingw32/bin/../lib/gcc/nios2-elf/4.7.3/../../../../../H-i686-mingw32/nios2-elf/lib\libc.a(lib_a-memset.o)
 .debug_aranges
                0x00000320       0x20 d:/altera13.1/nios2eds/bin/gnu/h-i686-mingw32/bin/../lib/gcc/nios2-elf/4.7.3/../../../../../H-i686-mingw32/nios2-elf/lib\libc.a(lib_a-mprec.o)
 .debug_aranges
                0x00000340       0x20 d:/altera13.1/nios2eds/bin/gnu/h-i686-mingw32/bin/../lib/gcc/nios2-elf/4.7.3/../../../../../H-i686-mingw32/nios2-elf/lib\libc.a(lib_a-putc.o)
 .debug_aranges
                0x00000360       0x20 d:/altera13.1/nios2eds/bin/gnu/h-i686-mingw32/bin/../lib/gcc/nios2-elf/4.7.3/../../../../../H-i686-mingw32/nios2-elf/lib\libc.a(lib_a-reallocr.o)
 .debug_aranges
                0x00000380       0x20 d:/altera13.1/nios2eds/bin/gnu/h-i686-mingw32/bin/../lib/gcc/nios2-elf/4.7.3/../../../../../H-i686-mingw32/nios2-elf/lib\libc.a(lib_a-s_isinfd.o)
 .debug_aranges
                0x000003a0       0x20 d:/altera13.1/nios2eds/bin/gnu/h-i686-mingw32/bin/../lib/gcc/nios2-elf/4.7.3/../../../../../H-i686-mingw32/nios2-elf/lib\libc.a(lib_a-s_isnand.o)
 .debug_aranges
                0x000003c0       0x20 d:/altera13.1/nios2eds/bin/gnu/h-i686-mingw32/bin/../lib/gcc/nios2-elf/4.7.3/../../../../../H-i686-mingw32/nios2-elf/lib\libc.a(lib_a-sbrkr.o)
 .debug_aranges
                0x000003e0       0x20 d:/altera13.1/nios2eds/bin/gnu/h-i686-mingw32/bin/../lib/gcc/nios2-elf/4.7.3/../../../../../H-i686-mingw32/nios2-elf/lib\libc.a(lib_a-stdio.o)
 .debug_aranges
                0x00000400       0x20 d:/altera13.1/nios2eds/bin/gnu/h-i686-mingw32/bin/../lib/gcc/nios2-elf/4.7.3/../../../../../H-i686-mingw32/nios2-elf/lib\libc.a(lib_a-strcmp.o)
 .debug_aranges
                0x00000420       0x20 d:/altera13.1/nios2eds/bin/gnu/h-i686-mingw32/bin/../lib/gcc/nios2-elf/4.7.3/../../../../../H-i686-mingw32/nios2-elf/lib\libc.a(lib_a-wbuf.o)
 .debug_aranges
                0x00000440       0x20 d:/altera13.1/nios2eds/bin/gnu/h-i686-mingw32/bin/../lib/gcc/nios2-elf/4.7.3/../../../../../H-i686-mingw32/nios2-elf/lib\libc.a(lib_a-writer.o)
 .debug_aranges
                0x00000460       0x20 d:/altera13.1/nios2eds/bin/gnu/h-i686-mingw32/bin/../lib/gcc/nios2-elf/4.7.3/../../../../../H-i686-mingw32/nios2-elf/lib\libc.a(lib_a-callocr.o)
 .debug_aranges
                0x00000480       0x20 d:/altera13.1/nios2eds/bin/gnu/h-i686-mingw32/bin/../lib/gcc/nios2-elf/4.7.3/../../../../../H-i686-mingw32/nios2-elf/lib\libc.a(lib_a-closer.o)
 .debug_aranges
                0x000004a0       0x20 d:/altera13.1/nios2eds/bin/gnu/h-i686-mingw32/bin/../lib/gcc/nios2-elf/4.7.3/../../../../../H-i686-mingw32/nios2-elf/lib\libc.a(lib_a-fclose.o)
 .debug_aranges
                0x000004c0       0x20 d:/altera13.1/nios2eds/bin/gnu/h-i686-mingw32/bin/../lib/gcc/nios2-elf/4.7.3/../../../../../H-i686-mingw32/nios2-elf/lib\libc.a(lib_a-fstatr.o)
 .debug_aranges
                0x000004e0       0x18 d:/altera13.1/nios2eds/bin/gnu/h-i686-mingw32/bin/../lib/gcc/nios2-elf/4.7.3/../../../../../H-i686-mingw32/nios2-elf/lib\libc.a(lib_a-int_errno.o)
 .debug_aranges
                0x000004f8       0x20 d:/altera13.1/nios2eds/bin/gnu/h-i686-mingw32/bin/../lib/gcc/nios2-elf/4.7.3/../../../../../H-i686-mingw32/nios2-elf/lib\libc.a(lib_a-isattyr.o)
 .debug_aranges
                0x00000518       0x20 d:/altera13.1/nios2eds/bin/gnu/h-i686-mingw32/bin/../lib/gcc/nios2-elf/4.7.3/../../../../../H-i686-mingw32/nios2-elf/lib\libc.a(lib_a-lseekr.o)
 .debug_aranges
                0x00000538       0x20 d:/altera13.1/nios2eds/bin/gnu/h-i686-mingw32/bin/../lib/gcc/nios2-elf/4.7.3/../../../../../H-i686-mingw32/nios2-elf/lib\libc.a(lib_a-readr.o)
 .debug_aranges
                0x00000558       0x20 d:/altera13.1/nios2eds/bin/gnu/h-i686-mingw32/bin/../lib/gcc/nios2-elf/4.7.3\libgcc.a(_muldi3.o)
 .debug_aranges
                0x00000578       0x20 d:/altera13.1/nios2eds/bin/gnu/h-i686-mingw32/bin/../lib/gcc/nios2-elf/4.7.3\libgcc.a(_udivdi3.o)
 .debug_aranges
                0x00000598       0x20 d:/altera13.1/nios2eds/bin/gnu/h-i686-mingw32/bin/../lib/gcc/nios2-elf/4.7.3\libgcc.a(_umoddi3.o)
 .debug_aranges
                0x000005b8       0x20 d:/altera13.1/nios2eds/bin/gnu/h-i686-mingw32/bin/../lib/gcc/nios2-elf/4.7.3\libgcc.a(_addsub_df.o)
 .debug_aranges
                0x000005d8       0x20 d:/altera13.1/nios2eds/bin/gnu/h-i686-mingw32/bin/../lib/gcc/nios2-elf/4.7.3\libgcc.a(_mul_df.o)
 .debug_aranges
                0x000005f8       0x20 d:/altera13.1/nios2eds/bin/gnu/h-i686-mingw32/bin/../lib/gcc/nios2-elf/4.7.3\libgcc.a(_div_df.o)
 .debug_aranges
                0x00000618       0x20 d:/altera13.1/nios2eds/bin/gnu/h-i686-mingw32/bin/../lib/gcc/nios2-elf/4.7.3\libgcc.a(_eq_df.o)
 .debug_aranges
                0x00000638       0x20 d:/altera13.1/nios2eds/bin/gnu/h-i686-mingw32/bin/../lib/gcc/nios2-elf/4.7.3\libgcc.a(_ne_df.o)
 .debug_aranges
                0x00000658       0x20 d:/altera13.1/nios2eds/bin/gnu/h-i686-mingw32/bin/../lib/gcc/nios2-elf/4.7.3\libgcc.a(_gt_df.o)
 .debug_aranges
                0x00000678       0x20 d:/altera13.1/nios2eds/bin/gnu/h-i686-mingw32/bin/../lib/gcc/nios2-elf/4.7.3\libgcc.a(_ge_df.o)
 .debug_aranges
                0x00000698       0x20 d:/altera13.1/nios2eds/bin/gnu/h-i686-mingw32/bin/../lib/gcc/nios2-elf/4.7.3\libgcc.a(_lt_df.o)
 .debug_aranges
                0x000006b8       0x20 d:/altera13.1/nios2eds/bin/gnu/h-i686-mingw32/bin/../lib/gcc/nios2-elf/4.7.3\libgcc.a(_si_to_df.o)
 .debug_aranges
                0x000006d8       0x20 d:/altera13.1/nios2eds/bin/gnu/h-i686-mingw32/bin/../lib/gcc/nios2-elf/4.7.3\libgcc.a(_df_to_si.o)
 .debug_aranges
                0x000006f8       0x18 d:/altera13.1/nios2eds/bin/gnu/h-i686-mingw32/bin/../lib/gcc/nios2-elf/4.7.3\libgcc.a(_thenan_df.o)
 .debug_aranges
                0x00000710       0x20 d:/altera13.1/nios2eds/bin/gnu/h-i686-mingw32/bin/../lib/gcc/nios2-elf/4.7.3\libgcc.a(_usi_to_df.o)
 .debug_aranges
                0x00000730       0x18 d:/altera13.1/nios2eds/bin/gnu/h-i686-mingw32/bin/../lib/gcc/nios2-elf/4.7.3\libgcc.a(_clz.o)
 .debug_aranges
                0x00000748       0x20 d:/altera13.1/nios2eds/bin/gnu/h-i686-mingw32/bin/../lib/gcc/nios2-elf/4.7.3\libgcc.a(_clzsi2.o)
 .debug_aranges
                0x00000768       0x20 d:/altera13.1/nios2eds/bin/gnu/h-i686-mingw32/bin/../lib/gcc/nios2-elf/4.7.3\libgcc.a(_pack_df.o)
 .debug_aranges
                0x00000788       0x20 d:/altera13.1/nios2eds/bin/gnu/h-i686-mingw32/bin/../lib/gcc/nios2-elf/4.7.3\libgcc.a(_unpack_df.o)
 .debug_aranges
                0x000007a8       0x20 d:/altera13.1/nios2eds/bin/gnu/h-i686-mingw32/bin/../lib/gcc/nios2-elf/4.7.3\libgcc.a(_fpcmp_parts_df.o)
 .debug_aranges
                0x000007c8       0x20 d:/altera13.1/nios2eds/bin/gnu/h-i686-mingw32/bin/../lib/gcc/nios2-elf/4.7.3\libgcc.a(_lshrdi3.o)
 .debug_aranges
                0x000007e8       0x20 d:/altera13.1/nios2eds/bin/gnu/h-i686-mingw32/bin/../lib/gcc/nios2-elf/4.7.3\libgcc.a(_ashldi3.o)
 .debug_aranges
                0x00000808       0x20 ../DE1_SoC_SDRAM_Nios_Test_bsp/\libhal_bsp.a(alt_close.o)
 .debug_aranges
                0x00000828       0x20 ../DE1_SoC_SDRAM_Nios_Test_bsp/\libhal_bsp.a(alt_dcache_flush_all.o)
 .debug_aranges
                0x00000848       0x20 ../DE1_SoC_SDRAM_Nios_Test_bsp/\libhal_bsp.a(alt_dev.o)
 .debug_aranges
                0x00000868       0x18 ../DE1_SoC_SDRAM_Nios_Test_bsp/\libhal_bsp.a(alt_errno.o)
 .debug_aranges
                0x00000880       0x20 ../DE1_SoC_SDRAM_Nios_Test_bsp/\libhal_bsp.a(alt_fstat.o)
 .debug_aranges
                0x000008a0       0x20 ../DE1_SoC_SDRAM_Nios_Test_bsp/\libhal_bsp.a(alt_isatty.o)
 .debug_aranges
                0x000008c0       0x20 ../DE1_SoC_SDRAM_Nios_Test_bsp/\libhal_bsp.a(alt_load.o)
 .debug_aranges
                0x000008e0       0x20 ../DE1_SoC_SDRAM_Nios_Test_bsp/\libhal_bsp.a(alt_lseek.o)
 .debug_aranges
                0x00000900       0x20 ../DE1_SoC_SDRAM_Nios_Test_bsp/\libhal_bsp.a(alt_main.o)
 .debug_aranges
                0x00000920       0x20 ../DE1_SoC_SDRAM_Nios_Test_bsp/\libhal_bsp.a(alt_malloc_lock.o)
 .debug_aranges
                0x00000940       0x20 ../DE1_SoC_SDRAM_Nios_Test_bsp/\libhal_bsp.a(alt_read.o)
 .debug_aranges
                0x00000960       0x20 ../DE1_SoC_SDRAM_Nios_Test_bsp/\libhal_bsp.a(alt_release_fd.o)
 .debug_aranges
                0x00000980       0x20 ../DE1_SoC_SDRAM_Nios_Test_bsp/\libhal_bsp.a(alt_sbrk.o)
 .debug_aranges
                0x000009a0       0x20 ../DE1_SoC_SDRAM_Nios_Test_bsp/\libhal_bsp.a(alt_tick.o)
 .debug_aranges
                0x000009c0       0x20 ../DE1_SoC_SDRAM_Nios_Test_bsp/\libhal_bsp.a(alt_usleep.o)
 .debug_aranges
                0x000009e0       0x20 ../DE1_SoC_SDRAM_Nios_Test_bsp/\libhal_bsp.a(alt_write.o)
 .debug_aranges
                0x00000a00       0x20 ../DE1_SoC_SDRAM_Nios_Test_bsp/\libhal_bsp.a(alt_sys_init.o)
 .debug_aranges
                0x00000a20       0x20 ../DE1_SoC_SDRAM_Nios_Test_bsp/\libhal_bsp.a(altera_avalon_jtag_uart_fd.o)
 .debug_aranges
                0x00000a40       0x20 ../DE1_SoC_SDRAM_Nios_Test_bsp/\libhal_bsp.a(altera_avalon_jtag_uart_init.o)
 .debug_aranges
                0x00000a60       0x20 ../DE1_SoC_SDRAM_Nios_Test_bsp/\libhal_bsp.a(altera_avalon_jtag_uart_ioctl.o)
 .debug_aranges
                0x00000a80       0x20 ../DE1_SoC_SDRAM_Nios_Test_bsp/\libhal_bsp.a(altera_avalon_jtag_uart_read.o)
 .debug_aranges
                0x00000aa0       0x20 ../DE1_SoC_SDRAM_Nios_Test_bsp/\libhal_bsp.a(altera_avalon_jtag_uart_write.o)
 .debug_aranges
                0x00000ac0       0x20 ../DE1_SoC_SDRAM_Nios_Test_bsp/\libhal_bsp.a(altera_avalon_timer_sc.o)
 .debug_aranges
                0x00000ae0       0x20 ../DE1_SoC_SDRAM_Nios_Test_bsp/\libhal_bsp.a(alt_alarm_start.o)
 .debug_aranges
                0x00000b00       0x20 ../DE1_SoC_SDRAM_Nios_Test_bsp/\libhal_bsp.a(alt_busy_sleep.o)
 .debug_aranges
                0x00000b20       0x20 ../DE1_SoC_SDRAM_Nios_Test_bsp/\libhal_bsp.a(alt_dev_llist_insert.o)
 .debug_aranges
                0x00000b40       0x20 ../DE1_SoC_SDRAM_Nios_Test_bsp/\libhal_bsp.a(alt_do_ctors.o)
 .debug_aranges
                0x00000b60       0x20 ../DE1_SoC_SDRAM_Nios_Test_bsp/\libhal_bsp.a(alt_do_dtors.o)
 .debug_aranges
                0x00000b80       0x20 ../DE1_SoC_SDRAM_Nios_Test_bsp/\libhal_bsp.a(alt_icache_flush_all.o)
 .debug_aranges
                0x00000ba0       0x20 ../DE1_SoC_SDRAM_Nios_Test_bsp/\libhal_bsp.a(alt_iic.o)
 .debug_aranges
                0x00000bc0       0x20 ../DE1_SoC_SDRAM_Nios_Test_bsp/\libhal_bsp.a(alt_iic_isr_register.o)
 .debug_aranges
                0x00000be0       0x20 ../DE1_SoC_SDRAM_Nios_Test_bsp/\libhal_bsp.a(alt_io_redirect.o)
 .debug_aranges
                0x00000c00       0x30 ../DE1_SoC_SDRAM_Nios_Test_bsp/\libhal_bsp.a(alt_irq_entry.o)
 .debug_aranges
                0x00000c30       0x20 ../DE1_SoC_SDRAM_Nios_Test_bsp/\libhal_bsp.a(alt_irq_handler.o)
 .debug_aranges
                0x00000c50       0x18 ../DE1_SoC_SDRAM_Nios_Test_bsp/\libhal_bsp.a(alt_irq_vars.o)
 .debug_aranges
                0x00000c68       0x20 ../DE1_SoC_SDRAM_Nios_Test_bsp/\libhal_bsp.a(alt_open.o)
 .debug_aranges
                0x00000c88       0x20 ../DE1_SoC_SDRAM_Nios_Test_bsp/\libhal_bsp.a(altera_nios2_qsys_irq.o)
 .debug_aranges
                0x00000ca8       0x38 ../DE1_SoC_SDRAM_Nios_Test_bsp/\libhal_bsp.a(alt_exception_entry.o)
 .debug_aranges
                0x00000ce0       0x20 ../DE1_SoC_SDRAM_Nios_Test_bsp/\libhal_bsp.a(alt_find_dev.o)
 .debug_aranges
                0x00000d00       0x20 ../DE1_SoC_SDRAM_Nios_Test_bsp/\libhal_bsp.a(alt_find_file.o)
 .debug_aranges
                0x00000d20       0x20 ../DE1_SoC_SDRAM_Nios_Test_bsp/\libhal_bsp.a(alt_get_fd.o)
 .debug_aranges
                0x00000d40       0x20 ../DE1_SoC_SDRAM_Nios_Test_bsp/\libhal_bsp.a(alt_icache_flush.o)
 .debug_aranges
                0x00000d60       0x20 d:/altera13.1/nios2eds/bin/gnu/h-i686-mingw32/bin/../lib/gcc/nios2-elf/4.7.3/../../../../../H-i686-mingw32/nios2-elf/lib\libc.a(lib_a-atexit.o)
 .debug_aranges
                0x00000d80       0x20 d:/altera13.1/nios2eds/bin/gnu/h-i686-mingw32/bin/../lib/gcc/nios2-elf/4.7.3/../../../../../H-i686-mingw32/nios2-elf/lib\libc.a(lib_a-exit.o)
 .debug_aranges
                0x00000da0       0x20 d:/altera13.1/nios2eds/bin/gnu/h-i686-mingw32/bin/../lib/gcc/nios2-elf/4.7.3/../../../../../H-i686-mingw32/nios2-elf/lib\libc.a(lib_a-memcmp.o)
 .debug_aranges
                0x00000dc0       0x20 d:/altera13.1/nios2eds/bin/gnu/h-i686-mingw32/bin/../lib/gcc/nios2-elf/4.7.3/../../../../../H-i686-mingw32/nios2-elf/lib\libc.a(lib_a-__atexit.o)
 .debug_aranges
                0x00000de0       0x20 d:/altera13.1/nios2eds/bin/gnu/h-i686-mingw32/bin/../lib/gcc/nios2-elf/4.7.3/../../../../../H-i686-mingw32/nios2-elf/lib\libc.a(lib_a-__call_atexit.o)
 .debug_aranges
                0x00000e00       0x20 ../DE1_SoC_SDRAM_Nios_Test_bsp/\libhal_bsp.a(alt_exit.o)

.debug_pubnames
 *(.debug_pubnames)

.debug_info     0x00000000    0x255af
 *(.debug_info .gnu.linkonce.wi.*)
 .debug_info    0x00000000       0xa2 ../DE1_SoC_SDRAM_Nios_Test_bsp//obj/HAL/src/crt0.o
 .debug_info    0x000000a2      0x201 obj/default/main.o
 .debug_info    0x000002a3      0x33b obj/default/mem_verify.o
 .debug_info    0x000005de      0x289 d:/altera13.1/nios2eds/bin/gnu/h-i686-mingw32/bin/../lib/gcc/nios2-elf/4.7.3\libgcc.a(lib2-divmod.o)
 .debug_info    0x00000867      0x10e d:/altera13.1/nios2eds/bin/gnu/h-i686-mingw32/bin/../lib/gcc/nios2-elf/4.7.3/../../../../../H-i686-mingw32/nios2-elf/lib\libc.a(lib_a-memcpy.o)
 .debug_info    0x00000975      0xa6c d:/altera13.1/nios2eds/bin/gnu/h-i686-mingw32/bin/../lib/gcc/nios2-elf/4.7.3/../../../../../H-i686-mingw32/nios2-elf/lib\libc.a(lib_a-printf.o)
 .debug_info    0x000013e1      0x9d7 d:/altera13.1/nios2eds/bin/gnu/h-i686-mingw32/bin/../lib/gcc/nios2-elf/4.7.3/../../../../../H-i686-mingw32/nios2-elf/lib\libc.a(lib_a-putchar.o)
 .debug_info    0x00001db8      0xab7 d:/altera13.1/nios2eds/bin/gnu/h-i686-mingw32/bin/../lib/gcc/nios2-elf/4.7.3/../../../../../H-i686-mingw32/nios2-elf/lib\libc.a(lib_a-puts.o)
 .debug_info    0x0000286f      0x953 d:/altera13.1/nios2eds/bin/gnu/h-i686-mingw32/bin/../lib/gcc/nios2-elf/4.7.3/../../../../../H-i686-mingw32/nios2-elf/lib\libc.a(lib_a-rand.o)
 .debug_info    0x000031c2       0xdf d:/altera13.1/nios2eds/bin/gnu/h-i686-mingw32/bin/../lib/gcc/nios2-elf/4.7.3/../../../../../H-i686-mingw32/nios2-elf/lib\libc.a(lib_a-strlen.o)
 .debug_info    0x000032a1     0x195a d:/altera13.1/nios2eds/bin/gnu/h-i686-mingw32/bin/../lib/gcc/nios2-elf/4.7.3/../../../../../H-i686-mingw32/nios2-elf/lib\libc.a(lib_a-vfprintf.o)
 .debug_info    0x00004bfb      0x9d4 d:/altera13.1/nios2eds/bin/gnu/h-i686-mingw32/bin/../lib/gcc/nios2-elf/4.7.3/../../../../../H-i686-mingw32/nios2-elf/lib\libc.a(lib_a-wsetup.o)
 .debug_info    0x000055cf     0x1408 d:/altera13.1/nios2eds/bin/gnu/h-i686-mingw32/bin/../lib/gcc/nios2-elf/4.7.3/../../../../../H-i686-mingw32/nios2-elf/lib\libc.a(lib_a-dtoa.o)
 .debug_info    0x000069d7      0xad0 d:/altera13.1/nios2eds/bin/gnu/h-i686-mingw32/bin/../lib/gcc/nios2-elf/4.7.3/../../../../../H-i686-mingw32/nios2-elf/lib\libc.a(lib_a-fflush.o)
 .debug_info    0x000074a7      0xd6f d:/altera13.1/nios2eds/bin/gnu/h-i686-mingw32/bin/../lib/gcc/nios2-elf/4.7.3/../../../../../H-i686-mingw32/nios2-elf/lib\libc.a(lib_a-findfp.o)
 .debug_info    0x00008216      0xcf9 d:/altera13.1/nios2eds/bin/gnu/h-i686-mingw32/bin/../lib/gcc/nios2-elf/4.7.3/../../../../../H-i686-mingw32/nios2-elf/lib\libc.a(lib_a-freer.o)
 .debug_info    0x00008f0f      0xd05 d:/altera13.1/nios2eds/bin/gnu/h-i686-mingw32/bin/../lib/gcc/nios2-elf/4.7.3/../../../../../H-i686-mingw32/nios2-elf/lib\libc.a(lib_a-fvwrite.o)
 .debug_info    0x00009c14      0xb72 d:/altera13.1/nios2eds/bin/gnu/h-i686-mingw32/bin/../lib/gcc/nios2-elf/4.7.3/../../../../../H-i686-mingw32/nios2-elf/lib\libc.a(lib_a-fwalk.o)
 .debug_info    0x0000a786      0x938 d:/altera13.1/nios2eds/bin/gnu/h-i686-mingw32/bin/../lib/gcc/nios2-elf/4.7.3/../../../../../H-i686-mingw32/nios2-elf/lib\libc.a(lib_a-impure.o)
 .debug_info    0x0000b0be      0xc10 d:/altera13.1/nios2eds/bin/gnu/h-i686-mingw32/bin/../lib/gcc/nios2-elf/4.7.3/../../../../../H-i686-mingw32/nios2-elf/lib\libc.a(lib_a-locale.o)
 .debug_info    0x0000bcce      0xbc2 d:/altera13.1/nios2eds/bin/gnu/h-i686-mingw32/bin/../lib/gcc/nios2-elf/4.7.3/../../../../../H-i686-mingw32/nios2-elf/lib\libc.a(lib_a-makebuf.o)
 .debug_info    0x0000c890      0xe44 d:/altera13.1/nios2eds/bin/gnu/h-i686-mingw32/bin/../lib/gcc/nios2-elf/4.7.3/../../../../../H-i686-mingw32/nios2-elf/lib\libc.a(lib_a-mallocr.o)
 .debug_info    0x0000d6d4      0x13e d:/altera13.1/nios2eds/bin/gnu/h-i686-mingw32/bin/../lib/gcc/nios2-elf/4.7.3/../../../../../H-i686-mingw32/nios2-elf/lib\libc.a(lib_a-memchr.o)
 .debug_info    0x0000d812      0x146 d:/altera13.1/nios2eds/bin/gnu/h-i686-mingw32/bin/../lib/gcc/nios2-elf/4.7.3/../../../../../H-i686-mingw32/nios2-elf/lib\libc.a(lib_a-memmove.o)
 .debug_info    0x0000d958      0x117 d:/altera13.1/nios2eds/bin/gnu/h-i686-mingw32/bin/../lib/gcc/nios2-elf/4.7.3/../../../../../H-i686-mingw32/nios2-elf/lib\libc.a(lib_a-memset.o)
 .debug_info    0x0000da6f     0x172a d:/altera13.1/nios2eds/bin/gnu/h-i686-mingw32/bin/../lib/gcc/nios2-elf/4.7.3/../../../../../H-i686-mingw32/nios2-elf/lib\libc.a(lib_a-mprec.o)
 .debug_info    0x0000f199      0xa2e d:/altera13.1/nios2eds/bin/gnu/h-i686-mingw32/bin/../lib/gcc/nios2-elf/4.7.3/../../../../../H-i686-mingw32/nios2-elf/lib\libc.a(lib_a-putc.o)
 .debug_info    0x0000fbc7      0xd8e d:/altera13.1/nios2eds/bin/gnu/h-i686-mingw32/bin/../lib/gcc/nios2-elf/4.7.3/../../../../../H-i686-mingw32/nios2-elf/lib\libc.a(lib_a-reallocr.o)
 .debug_info    0x00010955       0xe8 d:/altera13.1/nios2eds/bin/gnu/h-i686-mingw32/bin/../lib/gcc/nios2-elf/4.7.3/../../../../../H-i686-mingw32/nios2-elf/lib\libc.a(lib_a-s_isinfd.o)
 .debug_info    0x00010a3d       0xe8 d:/altera13.1/nios2eds/bin/gnu/h-i686-mingw32/bin/../lib/gcc/nios2-elf/4.7.3/../../../../../H-i686-mingw32/nios2-elf/lib\libc.a(lib_a-s_isnand.o)
 .debug_info    0x00010b25      0x9a3 d:/altera13.1/nios2eds/bin/gnu/h-i686-mingw32/bin/../lib/gcc/nios2-elf/4.7.3/../../../../../H-i686-mingw32/nios2-elf/lib\libc.a(lib_a-sbrkr.o)
 .debug_info    0x000114c8      0xbfd d:/altera13.1/nios2eds/bin/gnu/h-i686-mingw32/bin/../lib/gcc/nios2-elf/4.7.3/../../../../../H-i686-mingw32/nios2-elf/lib\libc.a(lib_a-stdio.o)
 .debug_info    0x000120c5       0xe1 d:/altera13.1/nios2eds/bin/gnu/h-i686-mingw32/bin/../lib/gcc/nios2-elf/4.7.3/../../../../../H-i686-mingw32/nios2-elf/lib\libc.a(lib_a-strcmp.o)
 .debug_info    0x000121a6      0xa6e d:/altera13.1/nios2eds/bin/gnu/h-i686-mingw32/bin/../lib/gcc/nios2-elf/4.7.3/../../../../../H-i686-mingw32/nios2-elf/lib\libc.a(lib_a-wbuf.o)
 .debug_info    0x00012c14      0x9d2 d:/altera13.1/nios2eds/bin/gnu/h-i686-mingw32/bin/../lib/gcc/nios2-elf/4.7.3/../../../../../H-i686-mingw32/nios2-elf/lib\libc.a(lib_a-writer.o)
 .debug_info    0x000135e6      0xa9b d:/altera13.1/nios2eds/bin/gnu/h-i686-mingw32/bin/../lib/gcc/nios2-elf/4.7.3/../../../../../H-i686-mingw32/nios2-elf/lib\libc.a(lib_a-callocr.o)
 .debug_info    0x00014081      0x97f d:/altera13.1/nios2eds/bin/gnu/h-i686-mingw32/bin/../lib/gcc/nios2-elf/4.7.3/../../../../../H-i686-mingw32/nios2-elf/lib\libc.a(lib_a-closer.o)
 .debug_info    0x00014a00      0xa97 d:/altera13.1/nios2eds/bin/gnu/h-i686-mingw32/bin/../lib/gcc/nios2-elf/4.7.3/../../../../../H-i686-mingw32/nios2-elf/lib\libc.a(lib_a-fclose.o)
 .debug_info    0x00015497      0xb2f d:/altera13.1/nios2eds/bin/gnu/h-i686-mingw32/bin/../lib/gcc/nios2-elf/4.7.3/../../../../../H-i686-mingw32/nios2-elf/lib\libc.a(lib_a-fstatr.o)
 .debug_info    0x00015fc6       0x84 d:/altera13.1/nios2eds/bin/gnu/h-i686-mingw32/bin/../lib/gcc/nios2-elf/4.7.3/../../../../../H-i686-mingw32/nios2-elf/lib\libc.a(lib_a-int_errno.o)
 .debug_info    0x0001604a      0x97f d:/altera13.1/nios2eds/bin/gnu/h-i686-mingw32/bin/../lib/gcc/nios2-elf/4.7.3/../../../../../H-i686-mingw32/nios2-elf/lib\libc.a(lib_a-isattyr.o)
 .debug_info    0x000169c9      0x9cb d:/altera13.1/nios2eds/bin/gnu/h-i686-mingw32/bin/../lib/gcc/nios2-elf/4.7.3/../../../../../H-i686-mingw32/nios2-elf/lib\libc.a(lib_a-lseekr.o)
 .debug_info    0x00017394      0x9cb d:/altera13.1/nios2eds/bin/gnu/h-i686-mingw32/bin/../lib/gcc/nios2-elf/4.7.3/../../../../../H-i686-mingw32/nios2-elf/lib\libc.a(lib_a-readr.o)
 .debug_info    0x00017d5f      0x1ea d:/altera13.1/nios2eds/bin/gnu/h-i686-mingw32/bin/../lib/gcc/nios2-elf/4.7.3\libgcc.a(_muldi3.o)
 .debug_info    0x00017f49      0x718 d:/altera13.1/nios2eds/bin/gnu/h-i686-mingw32/bin/../lib/gcc/nios2-elf/4.7.3\libgcc.a(_udivdi3.o)
 .debug_info    0x00018661      0x771 d:/altera13.1/nios2eds/bin/gnu/h-i686-mingw32/bin/../lib/gcc/nios2-elf/4.7.3\libgcc.a(_umoddi3.o)
 .debug_info    0x00018dd2      0x588 d:/altera13.1/nios2eds/bin/gnu/h-i686-mingw32/bin/../lib/gcc/nios2-elf/4.7.3\libgcc.a(_addsub_df.o)
 .debug_info    0x0001935a      0x519 d:/altera13.1/nios2eds/bin/gnu/h-i686-mingw32/bin/../lib/gcc/nios2-elf/4.7.3\libgcc.a(_mul_df.o)
 .debug_info    0x00019873      0x443 d:/altera13.1/nios2eds/bin/gnu/h-i686-mingw32/bin/../lib/gcc/nios2-elf/4.7.3\libgcc.a(_div_df.o)
 .debug_info    0x00019cb6      0x320 d:/altera13.1/nios2eds/bin/gnu/h-i686-mingw32/bin/../lib/gcc/nios2-elf/4.7.3\libgcc.a(_eq_df.o)
 .debug_info    0x00019fd6      0x320 d:/altera13.1/nios2eds/bin/gnu/h-i686-mingw32/bin/../lib/gcc/nios2-elf/4.7.3\libgcc.a(_ne_df.o)
 .debug_info    0x0001a2f6      0x320 d:/altera13.1/nios2eds/bin/gnu/h-i686-mingw32/bin/../lib/gcc/nios2-elf/4.7.3\libgcc.a(_gt_df.o)
 .debug_info    0x0001a616      0x320 d:/altera13.1/nios2eds/bin/gnu/h-i686-mingw32/bin/../lib/gcc/nios2-elf/4.7.3\libgcc.a(_ge_df.o)
 .debug_info    0x0001a936      0x320 d:/altera13.1/nios2eds/bin/gnu/h-i686-mingw32/bin/../lib/gcc/nios2-elf/4.7.3\libgcc.a(_lt_df.o)
 .debug_info    0x0001ac56      0x261 d:/altera13.1/nios2eds/bin/gnu/h-i686-mingw32/bin/../lib/gcc/nios2-elf/4.7.3\libgcc.a(_si_to_df.o)
 .debug_info    0x0001aeb7      0x30b d:/altera13.1/nios2eds/bin/gnu/h-i686-mingw32/bin/../lib/gcc/nios2-elf/4.7.3\libgcc.a(_df_to_si.o)
 .debug_info    0x0001b1c2      0x155 d:/altera13.1/nios2eds/bin/gnu/h-i686-mingw32/bin/../lib/gcc/nios2-elf/4.7.3\libgcc.a(_thenan_df.o)
 .debug_info    0x0001b317      0x284 d:/altera13.1/nios2eds/bin/gnu/h-i686-mingw32/bin/../lib/gcc/nios2-elf/4.7.3\libgcc.a(_usi_to_df.o)
 .debug_info    0x0001b59b       0xac d:/altera13.1/nios2eds/bin/gnu/h-i686-mingw32/bin/../lib/gcc/nios2-elf/4.7.3\libgcc.a(_clz.o)
 .debug_info    0x0001b647      0x123 d:/altera13.1/nios2eds/bin/gnu/h-i686-mingw32/bin/../lib/gcc/nios2-elf/4.7.3\libgcc.a(_clzsi2.o)
 .debug_info    0x0001b76a      0x2f7 d:/altera13.1/nios2eds/bin/gnu/h-i686-mingw32/bin/../lib/gcc/nios2-elf/4.7.3\libgcc.a(_pack_df.o)
 .debug_info    0x0001ba61      0x265 d:/altera13.1/nios2eds/bin/gnu/h-i686-mingw32/bin/../lib/gcc/nios2-elf/4.7.3\libgcc.a(_unpack_df.o)
 .debug_info    0x0001bcc6      0x226 d:/altera13.1/nios2eds/bin/gnu/h-i686-mingw32/bin/../lib/gcc/nios2-elf/4.7.3\libgcc.a(_fpcmp_parts_df.o)
 .debug_info    0x0001beec      0x185 d:/altera13.1/nios2eds/bin/gnu/h-i686-mingw32/bin/../lib/gcc/nios2-elf/4.7.3\libgcc.a(_lshrdi3.o)
 .debug_info    0x0001c071      0x185 d:/altera13.1/nios2eds/bin/gnu/h-i686-mingw32/bin/../lib/gcc/nios2-elf/4.7.3\libgcc.a(_ashldi3.o)
 .debug_info    0x0001c1f6      0x350 ../DE1_SoC_SDRAM_Nios_Test_bsp/\libhal_bsp.a(alt_close.o)
 .debug_info    0x0001c546       0xa3 ../DE1_SoC_SDRAM_Nios_Test_bsp/\libhal_bsp.a(alt_dcache_flush_all.o)
 .debug_info    0x0001c5e9      0x4e3 ../DE1_SoC_SDRAM_Nios_Test_bsp/\libhal_bsp.a(alt_dev.o)
 .debug_info    0x0001cacc       0xa3 ../DE1_SoC_SDRAM_Nios_Test_bsp/\libhal_bsp.a(alt_errno.o)
 .debug_info    0x0001cb6f      0x4d8 ../DE1_SoC_SDRAM_Nios_Test_bsp/\libhal_bsp.a(alt_fstat.o)
 .debug_info    0x0001d047      0x4db ../DE1_SoC_SDRAM_Nios_Test_bsp/\libhal_bsp.a(alt_isatty.o)
 .debug_info    0x0001d522      0x135 ../DE1_SoC_SDRAM_Nios_Test_bsp/\libhal_bsp.a(alt_load.o)
 .debug_info    0x0001d657      0x381 ../DE1_SoC_SDRAM_Nios_Test_bsp/\libhal_bsp.a(alt_lseek.o)
 .debug_info    0x0001d9d8      0x139 ../DE1_SoC_SDRAM_Nios_Test_bsp/\libhal_bsp.a(alt_main.o)
 .debug_info    0x0001db11      0x950 ../DE1_SoC_SDRAM_Nios_Test_bsp/\libhal_bsp.a(alt_malloc_lock.o)
 .debug_info    0x0001e461      0x500 ../DE1_SoC_SDRAM_Nios_Test_bsp/\libhal_bsp.a(alt_read.o)
 .debug_info    0x0001e961      0x2dd ../DE1_SoC_SDRAM_Nios_Test_bsp/\libhal_bsp.a(alt_release_fd.o)
 .debug_info    0x0001ec3e      0x1b2 ../DE1_SoC_SDRAM_Nios_Test_bsp/\libhal_bsp.a(alt_sbrk.o)
 .debug_info    0x0001edf0      0x2b1 ../DE1_SoC_SDRAM_Nios_Test_bsp/\libhal_bsp.a(alt_tick.o)
 .debug_info    0x0001f0a1       0xad ../DE1_SoC_SDRAM_Nios_Test_bsp/\libhal_bsp.a(alt_usleep.o)
 .debug_info    0x0001f14e      0x507 ../DE1_SoC_SDRAM_Nios_Test_bsp/\libhal_bsp.a(alt_write.o)
 .debug_info    0x0001f655      0x539 ../DE1_SoC_SDRAM_Nios_Test_bsp/\libhal_bsp.a(alt_sys_init.o)
 .debug_info    0x0001fb8e      0x58a ../DE1_SoC_SDRAM_Nios_Test_bsp/\libhal_bsp.a(altera_avalon_jtag_uart_fd.o)
 .debug_info    0x00020118      0x3d8 ../DE1_SoC_SDRAM_Nios_Test_bsp/\libhal_bsp.a(altera_avalon_jtag_uart_init.o)
 .debug_info    0x000204f0      0x2a9 ../DE1_SoC_SDRAM_Nios_Test_bsp/\libhal_bsp.a(altera_avalon_jtag_uart_ioctl.o)
 .debug_info    0x00020799      0x371 ../DE1_SoC_SDRAM_Nios_Test_bsp/\libhal_bsp.a(altera_avalon_jtag_uart_read.o)
 .debug_info    0x00020b0a      0x36c ../DE1_SoC_SDRAM_Nios_Test_bsp/\libhal_bsp.a(altera_avalon_jtag_uart_write.o)
 .debug_info    0x00020e76      0x235 ../DE1_SoC_SDRAM_Nios_Test_bsp/\libhal_bsp.a(altera_avalon_timer_sc.o)
 .debug_info    0x000210ab      0x2e4 ../DE1_SoC_SDRAM_Nios_Test_bsp/\libhal_bsp.a(alt_alarm_start.o)
 .debug_info    0x0002138f       0xd5 ../DE1_SoC_SDRAM_Nios_Test_bsp/\libhal_bsp.a(alt_busy_sleep.o)
 .debug_info    0x00021464      0x1b9 ../DE1_SoC_SDRAM_Nios_Test_bsp/\libhal_bsp.a(alt_dev_llist_insert.o)
 .debug_info    0x0002161d       0x8d ../DE1_SoC_SDRAM_Nios_Test_bsp/\libhal_bsp.a(alt_do_ctors.o)
 .debug_info    0x000216aa       0x8d ../DE1_SoC_SDRAM_Nios_Test_bsp/\libhal_bsp.a(alt_do_dtors.o)
 .debug_info    0x00021737       0x90 ../DE1_SoC_SDRAM_Nios_Test_bsp/\libhal_bsp.a(alt_icache_flush_all.o)
 .debug_info    0x000217c7      0x364 ../DE1_SoC_SDRAM_Nios_Test_bsp/\libhal_bsp.a(alt_iic.o)
 .debug_info    0x00021b2b      0x1f6 ../DE1_SoC_SDRAM_Nios_Test_bsp/\libhal_bsp.a(alt_iic_isr_register.o)
 .debug_info    0x00021d21      0x4f0 ../DE1_SoC_SDRAM_Nios_Test_bsp/\libhal_bsp.a(alt_io_redirect.o)
 .debug_info    0x00022211       0xab ../DE1_SoC_SDRAM_Nios_Test_bsp/\libhal_bsp.a(alt_irq_entry.o)
 .debug_info    0x000222bc      0x190 ../DE1_SoC_SDRAM_Nios_Test_bsp/\libhal_bsp.a(alt_irq_handler.o)
 .debug_info    0x0002244c       0x8a ../DE1_SoC_SDRAM_Nios_Test_bsp/\libhal_bsp.a(alt_irq_vars.o)
 .debug_info    0x000224d6      0x3f0 ../DE1_SoC_SDRAM_Nios_Test_bsp/\libhal_bsp.a(alt_open.o)
 .debug_info    0x000228c6       0x90 ../DE1_SoC_SDRAM_Nios_Test_bsp/\libhal_bsp.a(altera_nios2_qsys_irq.o)
 .debug_info    0x00022956       0xb1 ../DE1_SoC_SDRAM_Nios_Test_bsp/\libhal_bsp.a(alt_exception_entry.o)
 .debug_info    0x00022a07      0x30d ../DE1_SoC_SDRAM_Nios_Test_bsp/\libhal_bsp.a(alt_find_dev.o)
 .debug_info    0x00022d14      0x30c ../DE1_SoC_SDRAM_Nios_Test_bsp/\libhal_bsp.a(alt_find_file.o)
 .debug_info    0x00023020      0x339 ../DE1_SoC_SDRAM_Nios_Test_bsp/\libhal_bsp.a(alt_get_fd.o)
 .debug_info    0x00023359       0xda ../DE1_SoC_SDRAM_Nios_Test_bsp/\libhal_bsp.a(alt_icache_flush.o)
 .debug_info    0x00023433      0x1e6 d:/altera13.1/nios2eds/bin/gnu/h-i686-mingw32/bin/../lib/gcc/nios2-elf/4.7.3/../../../../../H-i686-mingw32/nios2-elf/lib\libc.a(lib_a-atexit.o)
 .debug_info    0x00023619      0x993 d:/altera13.1/nios2eds/bin/gnu/h-i686-mingw32/bin/../lib/gcc/nios2-elf/4.7.3/../../../../../H-i686-mingw32/nios2-elf/lib\libc.a(lib_a-exit.o)
 .debug_info    0x00023fac      0x117 d:/altera13.1/nios2eds/bin/gnu/h-i686-mingw32/bin/../lib/gcc/nios2-elf/4.7.3/../../../../../H-i686-mingw32/nios2-elf/lib\libc.a(lib_a-memcmp.o)
 .debug_info    0x000240c3      0x9f9 d:/altera13.1/nios2eds/bin/gnu/h-i686-mingw32/bin/../lib/gcc/nios2-elf/4.7.3/../../../../../H-i686-mingw32/nios2-elf/lib\libc.a(lib_a-__atexit.o)
 .debug_info    0x00024abc      0xa07 d:/altera13.1/nios2eds/bin/gnu/h-i686-mingw32/bin/../lib/gcc/nios2-elf/4.7.3/../../../../../H-i686-mingw32/nios2-elf/lib\libc.a(lib_a-__call_atexit.o)
 .debug_info    0x000254c3       0xec ../DE1_SoC_SDRAM_Nios_Test_bsp/\libhal_bsp.a(alt_exit.o)

.debug_abbrev   0x00000000     0x97d6
 *(.debug_abbrev)
 .debug_abbrev  0x00000000       0x12 ../DE1_SoC_SDRAM_Nios_Test_bsp//obj/HAL/src/crt0.o
 .debug_abbrev  0x00000012       0xd3 obj/default/main.o
 .debug_abbrev  0x000000e5      0x101 obj/default/mem_verify.o
 .debug_abbrev  0x000001e6      0x112 d:/altera13.1/nios2eds/bin/gnu/h-i686-mingw32/bin/../lib/gcc/nios2-elf/4.7.3\libgcc.a(lib2-divmod.o)
 .debug_abbrev  0x000002f8       0x9c d:/altera13.1/nios2eds/bin/gnu/h-i686-mingw32/bin/../lib/gcc/nios2-elf/4.7.3/../../../../../H-i686-mingw32/nios2-elf/lib\libc.a(lib_a-memcpy.o)
 .debug_abbrev  0x00000394      0x209 d:/altera13.1/nios2eds/bin/gnu/h-i686-mingw32/bin/../lib/gcc/nios2-elf/4.7.3/../../../../../H-i686-mingw32/nios2-elf/lib\libc.a(lib_a-printf.o)
 .debug_abbrev  0x0000059d      0x1cd d:/altera13.1/nios2eds/bin/gnu/h-i686-mingw32/bin/../lib/gcc/nios2-elf/4.7.3/../../../../../H-i686-mingw32/nios2-elf/lib\libc.a(lib_a-putchar.o)
 .debug_abbrev  0x0000076a      0x208 d:/altera13.1/nios2eds/bin/gnu/h-i686-mingw32/bin/../lib/gcc/nios2-elf/4.7.3/../../../../../H-i686-mingw32/nios2-elf/lib\libc.a(lib_a-puts.o)
 .debug_abbrev  0x00000972      0x19a d:/altera13.1/nios2eds/bin/gnu/h-i686-mingw32/bin/../lib/gcc/nios2-elf/4.7.3/../../../../../H-i686-mingw32/nios2-elf/lib\libc.a(lib_a-rand.o)
 .debug_abbrev  0x00000b0c       0x90 d:/altera13.1/nios2eds/bin/gnu/h-i686-mingw32/bin/../lib/gcc/nios2-elf/4.7.3/../../../../../H-i686-mingw32/nios2-elf/lib\libc.a(lib_a-strlen.o)
 .debug_abbrev  0x00000b9c      0x3d9 d:/altera13.1/nios2eds/bin/gnu/h-i686-mingw32/bin/../lib/gcc/nios2-elf/4.7.3/../../../../../H-i686-mingw32/nios2-elf/lib\libc.a(lib_a-vfprintf.o)
 .debug_abbrev  0x00000f75      0x1d5 d:/altera13.1/nios2eds/bin/gnu/h-i686-mingw32/bin/../lib/gcc/nios2-elf/4.7.3/../../../../../H-i686-mingw32/nios2-elf/lib\libc.a(lib_a-wsetup.o)
 .debug_abbrev  0x0000114a      0x2ab d:/altera13.1/nios2eds/bin/gnu/h-i686-mingw32/bin/../lib/gcc/nios2-elf/4.7.3/../../../../../H-i686-mingw32/nios2-elf/lib\libc.a(lib_a-dtoa.o)
 .debug_abbrev  0x000013f5      0x259 d:/altera13.1/nios2eds/bin/gnu/h-i686-mingw32/bin/../lib/gcc/nios2-elf/4.7.3/../../../../../H-i686-mingw32/nios2-elf/lib\libc.a(lib_a-fflush.o)
 .debug_abbrev  0x0000164e      0x317 d:/altera13.1/nios2eds/bin/gnu/h-i686-mingw32/bin/../lib/gcc/nios2-elf/4.7.3/../../../../../H-i686-mingw32/nios2-elf/lib\libc.a(lib_a-findfp.o)
 .debug_abbrev  0x00001965      0x25d d:/altera13.1/nios2eds/bin/gnu/h-i686-mingw32/bin/../lib/gcc/nios2-elf/4.7.3/../../../../../H-i686-mingw32/nios2-elf/lib\libc.a(lib_a-freer.o)
 .debug_abbrev  0x00001bc2      0x234 d:/altera13.1/nios2eds/bin/gnu/h-i686-mingw32/bin/../lib/gcc/nios2-elf/4.7.3/../../../../../H-i686-mingw32/nios2-elf/lib\libc.a(lib_a-fvwrite.o)
 .debug_abbrev  0x00001df6      0x224 d:/altera13.1/nios2eds/bin/gnu/h-i686-mingw32/bin/../lib/gcc/nios2-elf/4.7.3/../../../../../H-i686-mingw32/nios2-elf/lib\libc.a(lib_a-fwalk.o)
 .debug_abbrev  0x0000201a      0x162 d:/altera13.1/nios2eds/bin/gnu/h-i686-mingw32/bin/../lib/gcc/nios2-elf/4.7.3/../../../../../H-i686-mingw32/nios2-elf/lib\libc.a(lib_a-impure.o)
 .debug_abbrev  0x0000217c      0x29f d:/altera13.1/nios2eds/bin/gnu/h-i686-mingw32/bin/../lib/gcc/nios2-elf/4.7.3/../../../../../H-i686-mingw32/nios2-elf/lib\libc.a(lib_a-locale.o)
 .debug_abbrev  0x0000241b      0x1e8 d:/altera13.1/nios2eds/bin/gnu/h-i686-mingw32/bin/../lib/gcc/nios2-elf/4.7.3/../../../../../H-i686-mingw32/nios2-elf/lib\libc.a(lib_a-makebuf.o)
 .debug_abbrev  0x00002603      0x284 d:/altera13.1/nios2eds/bin/gnu/h-i686-mingw32/bin/../lib/gcc/nios2-elf/4.7.3/../../../../../H-i686-mingw32/nios2-elf/lib\libc.a(lib_a-mallocr.o)
 .debug_abbrev  0x00002887       0xab d:/altera13.1/nios2eds/bin/gnu/h-i686-mingw32/bin/../lib/gcc/nios2-elf/4.7.3/../../../../../H-i686-mingw32/nios2-elf/lib\libc.a(lib_a-memchr.o)
 .debug_abbrev  0x00002932       0x9c d:/altera13.1/nios2eds/bin/gnu/h-i686-mingw32/bin/../lib/gcc/nios2-elf/4.7.3/../../../../../H-i686-mingw32/nios2-elf/lib\libc.a(lib_a-memmove.o)
 .debug_abbrev  0x000029ce       0xac d:/altera13.1/nios2eds/bin/gnu/h-i686-mingw32/bin/../lib/gcc/nios2-elf/4.7.3/../../../../../H-i686-mingw32/nios2-elf/lib\libc.a(lib_a-memset.o)
 .debug_abbrev  0x00002a7a      0x394 d:/altera13.1/nios2eds/bin/gnu/h-i686-mingw32/bin/../lib/gcc/nios2-elf/4.7.3/../../../../../H-i686-mingw32/nios2-elf/lib\libc.a(lib_a-mprec.o)
 .debug_abbrev  0x00002e0e      0x1f8 d:/altera13.1/nios2eds/bin/gnu/h-i686-mingw32/bin/../lib/gcc/nios2-elf/4.7.3/../../../../../H-i686-mingw32/nios2-elf/lib\libc.a(lib_a-putc.o)
 .debug_abbrev  0x00003006      0x242 d:/altera13.1/nios2eds/bin/gnu/h-i686-mingw32/bin/../lib/gcc/nios2-elf/4.7.3/../../../../../H-i686-mingw32/nios2-elf/lib\libc.a(lib_a-reallocr.o)
 .debug_abbrev  0x00003248       0x6f d:/altera13.1/nios2eds/bin/gnu/h-i686-mingw32/bin/../lib/gcc/nios2-elf/4.7.3/../../../../../H-i686-mingw32/nios2-elf/lib\libc.a(lib_a-s_isinfd.o)
 .debug_abbrev  0x000032b7       0x6f d:/altera13.1/nios2eds/bin/gnu/h-i686-mingw32/bin/../lib/gcc/nios2-elf/4.7.3/../../../../../H-i686-mingw32/nios2-elf/lib\libc.a(lib_a-s_isnand.o)
 .debug_abbrev  0x00003326      0x1df d:/altera13.1/nios2eds/bin/gnu/h-i686-mingw32/bin/../lib/gcc/nios2-elf/4.7.3/../../../../../H-i686-mingw32/nios2-elf/lib\libc.a(lib_a-sbrkr.o)
 .debug_abbrev  0x00003505      0x226 d:/altera13.1/nios2eds/bin/gnu/h-i686-mingw32/bin/../lib/gcc/nios2-elf/4.7.3/../../../../../H-i686-mingw32/nios2-elf/lib\libc.a(lib_a-stdio.o)
 .debug_abbrev  0x0000372b       0x74 d:/altera13.1/nios2eds/bin/gnu/h-i686-mingw32/bin/../lib/gcc/nios2-elf/4.7.3/../../../../../H-i686-mingw32/nios2-elf/lib\libc.a(lib_a-strcmp.o)
 .debug_abbrev  0x0000379f      0x21a d:/altera13.1/nios2eds/bin/gnu/h-i686-mingw32/bin/../lib/gcc/nios2-elf/4.7.3/../../../../../H-i686-mingw32/nios2-elf/lib\libc.a(lib_a-wbuf.o)
 .debug_abbrev  0x000039b9      0x1c0 d:/altera13.1/nios2eds/bin/gnu/h-i686-mingw32/bin/../lib/gcc/nios2-elf/4.7.3/../../../../../H-i686-mingw32/nios2-elf/lib\libc.a(lib_a-writer.o)
 .debug_abbrev  0x00003b79      0x1f5 d:/altera13.1/nios2eds/bin/gnu/h-i686-mingw32/bin/../lib/gcc/nios2-elf/4.7.3/../../../../../H-i686-mingw32/nios2-elf/lib\libc.a(lib_a-callocr.o)
 .debug_abbrev  0x00003d6e      0x1bb d:/altera13.1/nios2eds/bin/gnu/h-i686-mingw32/bin/../lib/gcc/nios2-elf/4.7.3/../../../../../H-i686-mingw32/nios2-elf/lib\libc.a(lib_a-closer.o)
 .debug_abbrev  0x00003f29      0x24e d:/altera13.1/nios2eds/bin/gnu/h-i686-mingw32/bin/../lib/gcc/nios2-elf/4.7.3/../../../../../H-i686-mingw32/nios2-elf/lib\libc.a(lib_a-fclose.o)
 .debug_abbrev  0x00004177      0x1ca d:/altera13.1/nios2eds/bin/gnu/h-i686-mingw32/bin/../lib/gcc/nios2-elf/4.7.3/../../../../../H-i686-mingw32/nios2-elf/lib\libc.a(lib_a-fstatr.o)
 .debug_abbrev  0x00004341       0x37 d:/altera13.1/nios2eds/bin/gnu/h-i686-mingw32/bin/../lib/gcc/nios2-elf/4.7.3/../../../../../H-i686-mingw32/nios2-elf/lib\libc.a(lib_a-int_errno.o)
 .debug_abbrev  0x00004378      0x1bb d:/altera13.1/nios2eds/bin/gnu/h-i686-mingw32/bin/../lib/gcc/nios2-elf/4.7.3/../../../../../H-i686-mingw32/nios2-elf/lib\libc.a(lib_a-isattyr.o)
 .debug_abbrev  0x00004533      0x1ca d:/altera13.1/nios2eds/bin/gnu/h-i686-mingw32/bin/../lib/gcc/nios2-elf/4.7.3/../../../../../H-i686-mingw32/nios2-elf/lib\libc.a(lib_a-lseekr.o)
 .debug_abbrev  0x000046fd      0x1bb d:/altera13.1/nios2eds/bin/gnu/h-i686-mingw32/bin/../lib/gcc/nios2-elf/4.7.3/../../../../../H-i686-mingw32/nios2-elf/lib\libc.a(lib_a-readr.o)
 .debug_abbrev  0x000048b8       0xe0 d:/altera13.1/nios2eds/bin/gnu/h-i686-mingw32/bin/../lib/gcc/nios2-elf/4.7.3\libgcc.a(_muldi3.o)
 .debug_abbrev  0x00004998      0x170 d:/altera13.1/nios2eds/bin/gnu/h-i686-mingw32/bin/../lib/gcc/nios2-elf/4.7.3\libgcc.a(_udivdi3.o)
 .debug_abbrev  0x00004b08      0x193 d:/altera13.1/nios2eds/bin/gnu/h-i686-mingw32/bin/../lib/gcc/nios2-elf/4.7.3\libgcc.a(_umoddi3.o)
 .debug_abbrev  0x00004c9b      0x22d d:/altera13.1/nios2eds/bin/gnu/h-i686-mingw32/bin/../lib/gcc/nios2-elf/4.7.3\libgcc.a(_addsub_df.o)
 .debug_abbrev  0x00004ec8      0x240 d:/altera13.1/nios2eds/bin/gnu/h-i686-mingw32/bin/../lib/gcc/nios2-elf/4.7.3\libgcc.a(_mul_df.o)
 .debug_abbrev  0x00005108      0x245 d:/altera13.1/nios2eds/bin/gnu/h-i686-mingw32/bin/../lib/gcc/nios2-elf/4.7.3\libgcc.a(_div_df.o)
 .debug_abbrev  0x0000534d      0x1a5 d:/altera13.1/nios2eds/bin/gnu/h-i686-mingw32/bin/../lib/gcc/nios2-elf/4.7.3\libgcc.a(_eq_df.o)
 .debug_abbrev  0x000054f2      0x1a5 d:/altera13.1/nios2eds/bin/gnu/h-i686-mingw32/bin/../lib/gcc/nios2-elf/4.7.3\libgcc.a(_ne_df.o)
 .debug_abbrev  0x00005697      0x1a5 d:/altera13.1/nios2eds/bin/gnu/h-i686-mingw32/bin/../lib/gcc/nios2-elf/4.7.3\libgcc.a(_gt_df.o)
 .debug_abbrev  0x0000583c      0x1a5 d:/altera13.1/nios2eds/bin/gnu/h-i686-mingw32/bin/../lib/gcc/nios2-elf/4.7.3\libgcc.a(_ge_df.o)
 .debug_abbrev  0x000059e1      0x1a5 d:/altera13.1/nios2eds/bin/gnu/h-i686-mingw32/bin/../lib/gcc/nios2-elf/4.7.3\libgcc.a(_lt_df.o)
 .debug_abbrev  0x00005b86      0x19c d:/altera13.1/nios2eds/bin/gnu/h-i686-mingw32/bin/../lib/gcc/nios2-elf/4.7.3\libgcc.a(_si_to_df.o)
 .debug_abbrev  0x00005d22      0x1ae d:/altera13.1/nios2eds/bin/gnu/h-i686-mingw32/bin/../lib/gcc/nios2-elf/4.7.3\libgcc.a(_df_to_si.o)
 .debug_abbrev  0x00005ed0       0xb6 d:/altera13.1/nios2eds/bin/gnu/h-i686-mingw32/bin/../lib/gcc/nios2-elf/4.7.3\libgcc.a(_thenan_df.o)
 .debug_abbrev  0x00005f86      0x1bf d:/altera13.1/nios2eds/bin/gnu/h-i686-mingw32/bin/../lib/gcc/nios2-elf/4.7.3\libgcc.a(_usi_to_df.o)
 .debug_abbrev  0x00006145       0x5d d:/altera13.1/nios2eds/bin/gnu/h-i686-mingw32/bin/../lib/gcc/nios2-elf/4.7.3\libgcc.a(_clz.o)
 .debug_abbrev  0x000061a2       0xbe d:/altera13.1/nios2eds/bin/gnu/h-i686-mingw32/bin/../lib/gcc/nios2-elf/4.7.3\libgcc.a(_clzsi2.o)
 .debug_abbrev  0x00006260      0x1b6 d:/altera13.1/nios2eds/bin/gnu/h-i686-mingw32/bin/../lib/gcc/nios2-elf/4.7.3\libgcc.a(_pack_df.o)
 .debug_abbrev  0x00006416      0x15d d:/altera13.1/nios2eds/bin/gnu/h-i686-mingw32/bin/../lib/gcc/nios2-elf/4.7.3\libgcc.a(_unpack_df.o)
 .debug_abbrev  0x00006573      0x146 d:/altera13.1/nios2eds/bin/gnu/h-i686-mingw32/bin/../lib/gcc/nios2-elf/4.7.3\libgcc.a(_fpcmp_parts_df.o)
 .debug_abbrev  0x000066b9       0xf1 d:/altera13.1/nios2eds/bin/gnu/h-i686-mingw32/bin/../lib/gcc/nios2-elf/4.7.3\libgcc.a(_lshrdi3.o)
 .debug_abbrev  0x000067aa       0xf1 d:/altera13.1/nios2eds/bin/gnu/h-i686-mingw32/bin/../lib/gcc/nios2-elf/4.7.3\libgcc.a(_ashldi3.o)
 .debug_abbrev  0x0000689b      0x11f ../DE1_SoC_SDRAM_Nios_Test_bsp/\libhal_bsp.a(alt_close.o)
 .debug_abbrev  0x000069ba       0x5a ../DE1_SoC_SDRAM_Nios_Test_bsp/\libhal_bsp.a(alt_dcache_flush_all.o)
 .debug_abbrev  0x00006a14       0xd9 ../DE1_SoC_SDRAM_Nios_Test_bsp/\libhal_bsp.a(alt_dev.o)
 .debug_abbrev  0x00006aed       0x5a ../DE1_SoC_SDRAM_Nios_Test_bsp/\libhal_bsp.a(alt_errno.o)
 .debug_abbrev  0x00006b47      0x11f ../DE1_SoC_SDRAM_Nios_Test_bsp/\libhal_bsp.a(alt_fstat.o)
 .debug_abbrev  0x00006c66      0x11f ../DE1_SoC_SDRAM_Nios_Test_bsp/\libhal_bsp.a(alt_isatty.o)
 .debug_abbrev  0x00006d85       0x9d ../DE1_SoC_SDRAM_Nios_Test_bsp/\libhal_bsp.a(alt_load.o)
 .debug_abbrev  0x00006e22      0x11f ../DE1_SoC_SDRAM_Nios_Test_bsp/\libhal_bsp.a(alt_lseek.o)
 .debug_abbrev  0x00006f41       0xba ../DE1_SoC_SDRAM_Nios_Test_bsp/\libhal_bsp.a(alt_main.o)
 .debug_abbrev  0x00006ffb      0x187 ../DE1_SoC_SDRAM_Nios_Test_bsp/\libhal_bsp.a(alt_malloc_lock.o)
 .debug_abbrev  0x00007182      0x12e ../DE1_SoC_SDRAM_Nios_Test_bsp/\libhal_bsp.a(alt_read.o)
 .debug_abbrev  0x000072b0       0xde ../DE1_SoC_SDRAM_Nios_Test_bsp/\libhal_bsp.a(alt_release_fd.o)
 .debug_abbrev  0x0000738e      0x112 ../DE1_SoC_SDRAM_Nios_Test_bsp/\libhal_bsp.a(alt_sbrk.o)
 .debug_abbrev  0x000074a0      0x15a ../DE1_SoC_SDRAM_Nios_Test_bsp/\libhal_bsp.a(alt_tick.o)
 .debug_abbrev  0x000075fa       0x60 ../DE1_SoC_SDRAM_Nios_Test_bsp/\libhal_bsp.a(alt_usleep.o)
 .debug_abbrev  0x0000765a      0x133 ../DE1_SoC_SDRAM_Nios_Test_bsp/\libhal_bsp.a(alt_write.o)
 .debug_abbrev  0x0000778d      0x176 ../DE1_SoC_SDRAM_Nios_Test_bsp/\libhal_bsp.a(alt_sys_init.o)
 .debug_abbrev  0x00007903      0x118 ../DE1_SoC_SDRAM_Nios_Test_bsp/\libhal_bsp.a(altera_avalon_jtag_uart_fd.o)
 .debug_abbrev  0x00007a1b      0x18f ../DE1_SoC_SDRAM_Nios_Test_bsp/\libhal_bsp.a(altera_avalon_jtag_uart_init.o)
 .debug_abbrev  0x00007baa      0x102 ../DE1_SoC_SDRAM_Nios_Test_bsp/\libhal_bsp.a(altera_avalon_jtag_uart_ioctl.o)
 .debug_abbrev  0x00007cac      0x19b ../DE1_SoC_SDRAM_Nios_Test_bsp/\libhal_bsp.a(altera_avalon_jtag_uart_read.o)
 .debug_abbrev  0x00007e47      0x199 ../DE1_SoC_SDRAM_Nios_Test_bsp/\libhal_bsp.a(altera_avalon_jtag_uart_write.o)
 .debug_abbrev  0x00007fe0      0x155 ../DE1_SoC_SDRAM_Nios_Test_bsp/\libhal_bsp.a(altera_avalon_timer_sc.o)
 .debug_abbrev  0x00008135      0x162 ../DE1_SoC_SDRAM_Nios_Test_bsp/\libhal_bsp.a(alt_alarm_start.o)
 .debug_abbrev  0x00008297       0x7e ../DE1_SoC_SDRAM_Nios_Test_bsp/\libhal_bsp.a(alt_busy_sleep.o)
 .debug_abbrev  0x00008315      0x114 ../DE1_SoC_SDRAM_Nios_Test_bsp/\libhal_bsp.a(alt_dev_llist_insert.o)
 .debug_abbrev  0x00008429       0x79 ../DE1_SoC_SDRAM_Nios_Test_bsp/\libhal_bsp.a(alt_do_ctors.o)
 .debug_abbrev  0x000084a2       0x79 ../DE1_SoC_SDRAM_Nios_Test_bsp/\libhal_bsp.a(alt_do_dtors.o)
 .debug_abbrev  0x0000851b       0x42 ../DE1_SoC_SDRAM_Nios_Test_bsp/\libhal_bsp.a(alt_icache_flush_all.o)
 .debug_abbrev  0x0000855d      0x16a ../DE1_SoC_SDRAM_Nios_Test_bsp/\libhal_bsp.a(alt_iic.o)
 .debug_abbrev  0x000086c7      0x169 ../DE1_SoC_SDRAM_Nios_Test_bsp/\libhal_bsp.a(alt_iic_isr_register.o)
 .debug_abbrev  0x00008830      0x114 ../DE1_SoC_SDRAM_Nios_Test_bsp/\libhal_bsp.a(alt_io_redirect.o)
 .debug_abbrev  0x00008944       0x12 ../DE1_SoC_SDRAM_Nios_Test_bsp/\libhal_bsp.a(alt_irq_entry.o)
 .debug_abbrev  0x00008956      0x124 ../DE1_SoC_SDRAM_Nios_Test_bsp/\libhal_bsp.a(alt_irq_handler.o)
 .debug_abbrev  0x00008a7a       0x40 ../DE1_SoC_SDRAM_Nios_Test_bsp/\libhal_bsp.a(alt_irq_vars.o)
 .debug_abbrev  0x00008aba      0x148 ../DE1_SoC_SDRAM_Nios_Test_bsp/\libhal_bsp.a(alt_open.o)
 .debug_abbrev  0x00008c02       0x42 ../DE1_SoC_SDRAM_Nios_Test_bsp/\libhal_bsp.a(altera_nios2_qsys_irq.o)
 .debug_abbrev  0x00008c44       0x12 ../DE1_SoC_SDRAM_Nios_Test_bsp/\libhal_bsp.a(alt_exception_entry.o)
 .debug_abbrev  0x00008c56       0xf0 ../DE1_SoC_SDRAM_Nios_Test_bsp/\libhal_bsp.a(alt_find_dev.o)
 .debug_abbrev  0x00008d46       0xf0 ../DE1_SoC_SDRAM_Nios_Test_bsp/\libhal_bsp.a(alt_find_file.o)
 .debug_abbrev  0x00008e36      0x10d ../DE1_SoC_SDRAM_Nios_Test_bsp/\libhal_bsp.a(alt_get_fd.o)
 .debug_abbrev  0x00008f43       0x8c ../DE1_SoC_SDRAM_Nios_Test_bsp/\libhal_bsp.a(alt_icache_flush.o)
 .debug_abbrev  0x00008fcf      0x106 d:/altera13.1/nios2eds/bin/gnu/h-i686-mingw32/bin/../lib/gcc/nios2-elf/4.7.3/../../../../../H-i686-mingw32/nios2-elf/lib\libc.a(lib_a-atexit.o)
 .debug_abbrev  0x000090d5      0x1c8 d:/altera13.1/nios2eds/bin/gnu/h-i686-mingw32/bin/../lib/gcc/nios2-elf/4.7.3/../../../../../H-i686-mingw32/nios2-elf/lib\libc.a(lib_a-exit.o)
 .debug_abbrev  0x0000929d       0x7f d:/altera13.1/nios2eds/bin/gnu/h-i686-mingw32/bin/../lib/gcc/nios2-elf/4.7.3/../../../../../H-i686-mingw32/nios2-elf/lib\libc.a(lib_a-memcmp.o)
 .debug_abbrev  0x0000931c      0x211 d:/altera13.1/nios2eds/bin/gnu/h-i686-mingw32/bin/../lib/gcc/nios2-elf/4.7.3/../../../../../H-i686-mingw32/nios2-elf/lib\libc.a(lib_a-__atexit.o)
 .debug_abbrev  0x0000952d      0x203 d:/altera13.1/nios2eds/bin/gnu/h-i686-mingw32/bin/../lib/gcc/nios2-elf/4.7.3/../../../../../H-i686-mingw32/nios2-elf/lib\libc.a(lib_a-__call_atexit.o)
 .debug_abbrev  0x00009730       0xa6 ../DE1_SoC_SDRAM_Nios_Test_bsp/\libhal_bsp.a(alt_exit.o)

.debug_line     0x00000000     0xad21
 *(.debug_line)
 .debug_line    0x00000000       0x72 ../DE1_SoC_SDRAM_Nios_Test_bsp//obj/HAL/src/crt0.o
 .debug_line    0x00000072      0x198 obj/default/main.o
 .debug_line    0x0000020a      0x23a obj/default/mem_verify.o
 .debug_line    0x00000444       0xd3 d:/altera13.1/nios2eds/bin/gnu/h-i686-mingw32/bin/../lib/gcc/nios2-elf/4.7.3\libgcc.a(lib2-divmod.o)
 .debug_line    0x00000517      0x13d d:/altera13.1/nios2eds/bin/gnu/h-i686-mingw32/bin/../lib/gcc/nios2-elf/4.7.3/../../../../../H-i686-mingw32/nios2-elf/lib\libc.a(lib_a-memcpy.o)
 .debug_line    0x00000654      0x218 d:/altera13.1/nios2eds/bin/gnu/h-i686-mingw32/bin/../lib/gcc/nios2-elf/4.7.3/../../../../../H-i686-mingw32/nios2-elf/lib\libc.a(lib_a-printf.o)
 .debug_line    0x0000086c      0x203 d:/altera13.1/nios2eds/bin/gnu/h-i686-mingw32/bin/../lib/gcc/nios2-elf/4.7.3/../../../../../H-i686-mingw32/nios2-elf/lib\libc.a(lib_a-putchar.o)
 .debug_line    0x00000a6f      0x235 d:/altera13.1/nios2eds/bin/gnu/h-i686-mingw32/bin/../lib/gcc/nios2-elf/4.7.3/../../../../../H-i686-mingw32/nios2-elf/lib\libc.a(lib_a-puts.o)
 .debug_line    0x00000ca4      0x20b d:/altera13.1/nios2eds/bin/gnu/h-i686-mingw32/bin/../lib/gcc/nios2-elf/4.7.3/../../../../../H-i686-mingw32/nios2-elf/lib\libc.a(lib_a-rand.o)
 .debug_line    0x00000eaf      0x182 d:/altera13.1/nios2eds/bin/gnu/h-i686-mingw32/bin/../lib/gcc/nios2-elf/4.7.3/../../../../../H-i686-mingw32/nios2-elf/lib\libc.a(lib_a-strlen.o)
 .debug_line    0x00001031      0xaf9 d:/altera13.1/nios2eds/bin/gnu/h-i686-mingw32/bin/../lib/gcc/nios2-elf/4.7.3/../../../../../H-i686-mingw32/nios2-elf/lib\libc.a(lib_a-vfprintf.o)
 .debug_line    0x00001b2a      0x26b d:/altera13.1/nios2eds/bin/gnu/h-i686-mingw32/bin/../lib/gcc/nios2-elf/4.7.3/../../../../../H-i686-mingw32/nios2-elf/lib\libc.a(lib_a-wsetup.o)
 .debug_line    0x00001d95      0x876 d:/altera13.1/nios2eds/bin/gnu/h-i686-mingw32/bin/../lib/gcc/nios2-elf/4.7.3/../../../../../H-i686-mingw32/nios2-elf/lib\libc.a(lib_a-dtoa.o)
 .debug_line    0x0000260b      0x29c d:/altera13.1/nios2eds/bin/gnu/h-i686-mingw32/bin/../lib/gcc/nios2-elf/4.7.3/../../../../../H-i686-mingw32/nios2-elf/lib\libc.a(lib_a-fflush.o)
 .debug_line    0x000028a7      0x2e6 d:/altera13.1/nios2eds/bin/gnu/h-i686-mingw32/bin/../lib/gcc/nios2-elf/4.7.3/../../../../../H-i686-mingw32/nios2-elf/lib\libc.a(lib_a-findfp.o)
 .debug_line    0x00002b8d      0x311 d:/altera13.1/nios2eds/bin/gnu/h-i686-mingw32/bin/../lib/gcc/nios2-elf/4.7.3/../../../../../H-i686-mingw32/nios2-elf/lib\libc.a(lib_a-freer.o)
 .debug_line    0x00002e9e      0x360 d:/altera13.1/nios2eds/bin/gnu/h-i686-mingw32/bin/../lib/gcc/nios2-elf/4.7.3/../../../../../H-i686-mingw32/nios2-elf/lib\libc.a(lib_a-fvwrite.o)
 .debug_line    0x000031fe      0x259 d:/altera13.1/nios2eds/bin/gnu/h-i686-mingw32/bin/../lib/gcc/nios2-elf/4.7.3/../../../../../H-i686-mingw32/nios2-elf/lib\libc.a(lib_a-fwalk.o)
 .debug_line    0x00003457      0x173 d:/altera13.1/nios2eds/bin/gnu/h-i686-mingw32/bin/../lib/gcc/nios2-elf/4.7.3/../../../../../H-i686-mingw32/nios2-elf/lib\libc.a(lib_a-impure.o)
 .debug_line    0x000035ca      0x231 d:/altera13.1/nios2eds/bin/gnu/h-i686-mingw32/bin/../lib/gcc/nios2-elf/4.7.3/../../../../../H-i686-mingw32/nios2-elf/lib\libc.a(lib_a-locale.o)
 .debug_line    0x000037fb      0x293 d:/altera13.1/nios2eds/bin/gnu/h-i686-mingw32/bin/../lib/gcc/nios2-elf/4.7.3/../../../../../H-i686-mingw32/nios2-elf/lib\libc.a(lib_a-makebuf.o)
 .debug_line    0x00003a8e      0x421 d:/altera13.1/nios2eds/bin/gnu/h-i686-mingw32/bin/../lib/gcc/nios2-elf/4.7.3/../../../../../H-i686-mingw32/nios2-elf/lib\libc.a(lib_a-mallocr.o)
 .debug_line    0x00003eaf      0x1f1 d:/altera13.1/nios2eds/bin/gnu/h-i686-mingw32/bin/../lib/gcc/nios2-elf/4.7.3/../../../../../H-i686-mingw32/nios2-elf/lib\libc.a(lib_a-memchr.o)
 .debug_line    0x000040a0      0x1ed d:/altera13.1/nios2eds/bin/gnu/h-i686-mingw32/bin/../lib/gcc/nios2-elf/4.7.3/../../../../../H-i686-mingw32/nios2-elf/lib\libc.a(lib_a-memmove.o)
 .debug_line    0x0000428d      0x1f1 d:/altera13.1/nios2eds/bin/gnu/h-i686-mingw32/bin/../lib/gcc/nios2-elf/4.7.3/../../../../../H-i686-mingw32/nios2-elf/lib\libc.a(lib_a-memset.o)
 .debug_line    0x0000447e      0x725 d:/altera13.1/nios2eds/bin/gnu/h-i686-mingw32/bin/../lib/gcc/nios2-elf/4.7.3/../../../../../H-i686-mingw32/nios2-elf/lib\libc.a(lib_a-mprec.o)
 .debug_line    0x00004ba3      0x29c d:/altera13.1/nios2eds/bin/gnu/h-i686-mingw32/bin/../lib/gcc/nios2-elf/4.7.3/../../../../../H-i686-mingw32/nios2-elf/lib\libc.a(lib_a-putc.o)
 .debug_line    0x00004e3f      0x330 d:/altera13.1/nios2eds/bin/gnu/h-i686-mingw32/bin/../lib/gcc/nios2-elf/4.7.3/../../../../../H-i686-mingw32/nios2-elf/lib\libc.a(lib_a-reallocr.o)
 .debug_line    0x0000516f      0x170 d:/altera13.1/nios2eds/bin/gnu/h-i686-mingw32/bin/../lib/gcc/nios2-elf/4.7.3/../../../../../H-i686-mingw32/nios2-elf/lib\libc.a(lib_a-s_isinfd.o)
 .debug_line    0x000052df      0x170 d:/altera13.1/nios2eds/bin/gnu/h-i686-mingw32/bin/../lib/gcc/nios2-elf/4.7.3/../../../../../H-i686-mingw32/nios2-elf/lib\libc.a(lib_a-s_isnand.o)
 .debug_line    0x0000544f      0x212 d:/altera13.1/nios2eds/bin/gnu/h-i686-mingw32/bin/../lib/gcc/nios2-elf/4.7.3/../../../../../H-i686-mingw32/nios2-elf/lib\libc.a(lib_a-sbrkr.o)
 .debug_line    0x00005661      0x245 d:/altera13.1/nios2eds/bin/gnu/h-i686-mingw32/bin/../lib/gcc/nios2-elf/4.7.3/../../../../../H-i686-mingw32/nios2-elf/lib\libc.a(lib_a-stdio.o)
 .debug_line    0x000058a6      0x110 d:/altera13.1/nios2eds/bin/gnu/h-i686-mingw32/bin/../lib/gcc/nios2-elf/4.7.3/../../../../../H-i686-mingw32/nios2-elf/lib\libc.a(lib_a-strcmp.o)
 .debug_line    0x000059b6      0x272 d:/altera13.1/nios2eds/bin/gnu/h-i686-mingw32/bin/../lib/gcc/nios2-elf/4.7.3/../../../../../H-i686-mingw32/nios2-elf/lib\libc.a(lib_a-wbuf.o)
 .debug_line    0x00005c28      0x213 d:/altera13.1/nios2eds/bin/gnu/h-i686-mingw32/bin/../lib/gcc/nios2-elf/4.7.3/../../../../../H-i686-mingw32/nios2-elf/lib\libc.a(lib_a-writer.o)
 .debug_line    0x00005e3b      0x1c9 d:/altera13.1/nios2eds/bin/gnu/h-i686-mingw32/bin/../lib/gcc/nios2-elf/4.7.3/../../../../../H-i686-mingw32/nios2-elf/lib\libc.a(lib_a-callocr.o)
 .debug_line    0x00006004      0x213 d:/altera13.1/nios2eds/bin/gnu/h-i686-mingw32/bin/../lib/gcc/nios2-elf/4.7.3/../../../../../H-i686-mingw32/nios2-elf/lib\libc.a(lib_a-closer.o)
 .debug_line    0x00006217      0x266 d:/altera13.1/nios2eds/bin/gnu/h-i686-mingw32/bin/../lib/gcc/nios2-elf/4.7.3/../../../../../H-i686-mingw32/nios2-elf/lib\libc.a(lib_a-fclose.o)
 .debug_line    0x0000647d      0x21c d:/altera13.1/nios2eds/bin/gnu/h-i686-mingw32/bin/../lib/gcc/nios2-elf/4.7.3/../../../../../H-i686-mingw32/nios2-elf/lib\libc.a(lib_a-fstatr.o)
 .debug_line    0x00006699       0x5d d:/altera13.1/nios2eds/bin/gnu/h-i686-mingw32/bin/../lib/gcc/nios2-elf/4.7.3/../../../../../H-i686-mingw32/nios2-elf/lib\libc.a(lib_a-int_errno.o)
 .debug_line    0x000066f6      0x214 d:/altera13.1/nios2eds/bin/gnu/h-i686-mingw32/bin/../lib/gcc/nios2-elf/4.7.3/../../../../../H-i686-mingw32/nios2-elf/lib\libc.a(lib_a-isattyr.o)
 .debug_line    0x0000690a      0x21e d:/altera13.1/nios2eds/bin/gnu/h-i686-mingw32/bin/../lib/gcc/nios2-elf/4.7.3/../../../../../H-i686-mingw32/nios2-elf/lib\libc.a(lib_a-lseekr.o)
 .debug_line    0x00006b28      0x212 d:/altera13.1/nios2eds/bin/gnu/h-i686-mingw32/bin/../lib/gcc/nios2-elf/4.7.3/../../../../../H-i686-mingw32/nios2-elf/lib\libc.a(lib_a-readr.o)
 .debug_line    0x00006d3a       0x8b d:/altera13.1/nios2eds/bin/gnu/h-i686-mingw32/bin/../lib/gcc/nios2-elf/4.7.3\libgcc.a(_muldi3.o)
 .debug_line    0x00006dc5      0x119 d:/altera13.1/nios2eds/bin/gnu/h-i686-mingw32/bin/../lib/gcc/nios2-elf/4.7.3\libgcc.a(_udivdi3.o)
 .debug_line    0x00006ede      0x121 d:/altera13.1/nios2eds/bin/gnu/h-i686-mingw32/bin/../lib/gcc/nios2-elf/4.7.3\libgcc.a(_umoddi3.o)
 .debug_line    0x00006fff      0x131 d:/altera13.1/nios2eds/bin/gnu/h-i686-mingw32/bin/../lib/gcc/nios2-elf/4.7.3\libgcc.a(_addsub_df.o)
 .debug_line    0x00007130      0x114 d:/altera13.1/nios2eds/bin/gnu/h-i686-mingw32/bin/../lib/gcc/nios2-elf/4.7.3\libgcc.a(_mul_df.o)
 .debug_line    0x00007244       0xce d:/altera13.1/nios2eds/bin/gnu/h-i686-mingw32/bin/../lib/gcc/nios2-elf/4.7.3\libgcc.a(_div_df.o)
 .debug_line    0x00007312       0x6d d:/altera13.1/nios2eds/bin/gnu/h-i686-mingw32/bin/../lib/gcc/nios2-elf/4.7.3\libgcc.a(_eq_df.o)
 .debug_line    0x0000737f       0x6d d:/altera13.1/nios2eds/bin/gnu/h-i686-mingw32/bin/../lib/gcc/nios2-elf/4.7.3\libgcc.a(_ne_df.o)
 .debug_line    0x000073ec       0x6e d:/altera13.1/nios2eds/bin/gnu/h-i686-mingw32/bin/../lib/gcc/nios2-elf/4.7.3\libgcc.a(_gt_df.o)
 .debug_line    0x0000745a       0x6e d:/altera13.1/nios2eds/bin/gnu/h-i686-mingw32/bin/../lib/gcc/nios2-elf/4.7.3\libgcc.a(_ge_df.o)
 .debug_line    0x000074c8       0x6d d:/altera13.1/nios2eds/bin/gnu/h-i686-mingw32/bin/../lib/gcc/nios2-elf/4.7.3\libgcc.a(_lt_df.o)
 .debug_line    0x00007535       0x94 d:/altera13.1/nios2eds/bin/gnu/h-i686-mingw32/bin/../lib/gcc/nios2-elf/4.7.3\libgcc.a(_si_to_df.o)
 .debug_line    0x000075c9       0x8d d:/altera13.1/nios2eds/bin/gnu/h-i686-mingw32/bin/../lib/gcc/nios2-elf/4.7.3\libgcc.a(_df_to_si.o)
 .debug_line    0x00007656       0x51 d:/altera13.1/nios2eds/bin/gnu/h-i686-mingw32/bin/../lib/gcc/nios2-elf/4.7.3\libgcc.a(_thenan_df.o)
 .debug_line    0x000076a7       0x9e d:/altera13.1/nios2eds/bin/gnu/h-i686-mingw32/bin/../lib/gcc/nios2-elf/4.7.3\libgcc.a(_usi_to_df.o)
 .debug_line    0x00007745       0x53 d:/altera13.1/nios2eds/bin/gnu/h-i686-mingw32/bin/../lib/gcc/nios2-elf/4.7.3\libgcc.a(_clz.o)
 .debug_line    0x00007798       0x8c d:/altera13.1/nios2eds/bin/gnu/h-i686-mingw32/bin/../lib/gcc/nios2-elf/4.7.3\libgcc.a(_clzsi2.o)
 .debug_line    0x00007824       0xc7 d:/altera13.1/nios2eds/bin/gnu/h-i686-mingw32/bin/../lib/gcc/nios2-elf/4.7.3\libgcc.a(_pack_df.o)
 .debug_line    0x000078eb       0xa2 d:/altera13.1/nios2eds/bin/gnu/h-i686-mingw32/bin/../lib/gcc/nios2-elf/4.7.3\libgcc.a(_unpack_df.o)
 .debug_line    0x0000798d       0x96 d:/altera13.1/nios2eds/bin/gnu/h-i686-mingw32/bin/../lib/gcc/nios2-elf/4.7.3\libgcc.a(_fpcmp_parts_df.o)
 .debug_line    0x00007a23       0x77 d:/altera13.1/nios2eds/bin/gnu/h-i686-mingw32/bin/../lib/gcc/nios2-elf/4.7.3\libgcc.a(_lshrdi3.o)
 .debug_line    0x00007a9a       0x75 d:/altera13.1/nios2eds/bin/gnu/h-i686-mingw32/bin/../lib/gcc/nios2-elf/4.7.3\libgcc.a(_ashldi3.o)
 .debug_line    0x00007b0f      0x185 ../DE1_SoC_SDRAM_Nios_Test_bsp/\libhal_bsp.a(alt_close.o)
 .debug_line    0x00007c94       0x61 ../DE1_SoC_SDRAM_Nios_Test_bsp/\libhal_bsp.a(alt_dcache_flush_all.o)
 .debug_line    0x00007cf5      0x118 ../DE1_SoC_SDRAM_Nios_Test_bsp/\libhal_bsp.a(alt_dev.o)
 .debug_line    0x00007e0d       0x51 ../DE1_SoC_SDRAM_Nios_Test_bsp/\libhal_bsp.a(alt_errno.o)
 .debug_line    0x00007e5e      0x17f ../DE1_SoC_SDRAM_Nios_Test_bsp/\libhal_bsp.a(alt_fstat.o)
 .debug_line    0x00007fdd      0x17f ../DE1_SoC_SDRAM_Nios_Test_bsp/\libhal_bsp.a(alt_isatty.o)
 .debug_line    0x0000815c       0x92 ../DE1_SoC_SDRAM_Nios_Test_bsp/\libhal_bsp.a(alt_load.o)
 .debug_line    0x000081ee      0x183 ../DE1_SoC_SDRAM_Nios_Test_bsp/\libhal_bsp.a(alt_lseek.o)
 .debug_line    0x00008371       0xa4 ../DE1_SoC_SDRAM_Nios_Test_bsp/\libhal_bsp.a(alt_main.o)
 .debug_line    0x00008415      0x13d ../DE1_SoC_SDRAM_Nios_Test_bsp/\libhal_bsp.a(alt_malloc_lock.o)
 .debug_line    0x00008552      0x1f7 ../DE1_SoC_SDRAM_Nios_Test_bsp/\libhal_bsp.a(alt_read.o)
 .debug_line    0x00008749       0xae ../DE1_SoC_SDRAM_Nios_Test_bsp/\libhal_bsp.a(alt_release_fd.o)
 .debug_line    0x000087f7      0x113 ../DE1_SoC_SDRAM_Nios_Test_bsp/\libhal_bsp.a(alt_sbrk.o)
 .debug_line    0x0000890a      0x102 ../DE1_SoC_SDRAM_Nios_Test_bsp/\libhal_bsp.a(alt_tick.o)
 .debug_line    0x00008a0c       0xcd ../DE1_SoC_SDRAM_Nios_Test_bsp/\libhal_bsp.a(alt_usleep.o)
 .debug_line    0x00008ad9      0x1f6 ../DE1_SoC_SDRAM_Nios_Test_bsp/\libhal_bsp.a(alt_write.o)
 .debug_line    0x00008ccf      0x152 ../DE1_SoC_SDRAM_Nios_Test_bsp/\libhal_bsp.a(alt_sys_init.o)
 .debug_line    0x00008e21      0x131 ../DE1_SoC_SDRAM_Nios_Test_bsp/\libhal_bsp.a(altera_avalon_jtag_uart_fd.o)
 .debug_line    0x00008f52      0x199 ../DE1_SoC_SDRAM_Nios_Test_bsp/\libhal_bsp.a(altera_avalon_jtag_uart_init.o)
 .debug_line    0x000090eb      0x129 ../DE1_SoC_SDRAM_Nios_Test_bsp/\libhal_bsp.a(altera_avalon_jtag_uart_ioctl.o)
 .debug_line    0x00009214      0x174 ../DE1_SoC_SDRAM_Nios_Test_bsp/\libhal_bsp.a(altera_avalon_jtag_uart_read.o)
 .debug_line    0x00009388      0x173 ../DE1_SoC_SDRAM_Nios_Test_bsp/\libhal_bsp.a(altera_avalon_jtag_uart_write.o)
 .debug_line    0x000094fb       0xfd ../DE1_SoC_SDRAM_Nios_Test_bsp/\libhal_bsp.a(altera_avalon_timer_sc.o)
 .debug_line    0x000095f8       0xfa ../DE1_SoC_SDRAM_Nios_Test_bsp/\libhal_bsp.a(alt_alarm_start.o)
 .debug_line    0x000096f2       0xa0 ../DE1_SoC_SDRAM_Nios_Test_bsp/\libhal_bsp.a(alt_busy_sleep.o)
 .debug_line    0x00009792       0xd0 ../DE1_SoC_SDRAM_Nios_Test_bsp/\libhal_bsp.a(alt_dev_llist_insert.o)
 .debug_line    0x00009862       0x59 ../DE1_SoC_SDRAM_Nios_Test_bsp/\libhal_bsp.a(alt_do_ctors.o)
 .debug_line    0x000098bb       0x59 ../DE1_SoC_SDRAM_Nios_Test_bsp/\libhal_bsp.a(alt_do_dtors.o)
 .debug_line    0x00009914       0x50 ../DE1_SoC_SDRAM_Nios_Test_bsp/\libhal_bsp.a(alt_icache_flush_all.o)
 .debug_line    0x00009964       0xed ../DE1_SoC_SDRAM_Nios_Test_bsp/\libhal_bsp.a(alt_iic.o)
 .debug_line    0x00009a51       0xdb ../DE1_SoC_SDRAM_Nios_Test_bsp/\libhal_bsp.a(alt_iic_isr_register.o)
 .debug_line    0x00009b2c      0x153 ../DE1_SoC_SDRAM_Nios_Test_bsp/\libhal_bsp.a(alt_io_redirect.o)
 .debug_line    0x00009c7f       0x6b ../DE1_SoC_SDRAM_Nios_Test_bsp/\libhal_bsp.a(alt_irq_entry.o)
 .debug_line    0x00009cea       0xae ../DE1_SoC_SDRAM_Nios_Test_bsp/\libhal_bsp.a(alt_irq_handler.o)
 .debug_line    0x00009d98       0x50 ../DE1_SoC_SDRAM_Nios_Test_bsp/\libhal_bsp.a(alt_irq_vars.o)
 .debug_line    0x00009de8      0x125 ../DE1_SoC_SDRAM_Nios_Test_bsp/\libhal_bsp.a(alt_open.o)
 .debug_line    0x00009f0d       0x51 ../DE1_SoC_SDRAM_Nios_Test_bsp/\libhal_bsp.a(altera_nios2_qsys_irq.o)
 .debug_line    0x00009f5e       0xab ../DE1_SoC_SDRAM_Nios_Test_bsp/\libhal_bsp.a(alt_exception_entry.o)
 .debug_line    0x0000a009       0xb9 ../DE1_SoC_SDRAM_Nios_Test_bsp/\libhal_bsp.a(alt_find_dev.o)
 .debug_line    0x0000a0c2       0xd5 ../DE1_SoC_SDRAM_Nios_Test_bsp/\libhal_bsp.a(alt_find_file.o)
 .debug_line    0x0000a197       0xd1 ../DE1_SoC_SDRAM_Nios_Test_bsp/\libhal_bsp.a(alt_get_fd.o)
 .debug_line    0x0000a268       0x81 ../DE1_SoC_SDRAM_Nios_Test_bsp/\libhal_bsp.a(alt_icache_flush.o)
 .debug_line    0x0000a2e9      0x16d d:/altera13.1/nios2eds/bin/gnu/h-i686-mingw32/bin/../lib/gcc/nios2-elf/4.7.3/../../../../../H-i686-mingw32/nios2-elf/lib\libc.a(lib_a-atexit.o)
 .debug_line    0x0000a456      0x219 d:/altera13.1/nios2eds/bin/gnu/h-i686-mingw32/bin/../lib/gcc/nios2-elf/4.7.3/../../../../../H-i686-mingw32/nios2-elf/lib\libc.a(lib_a-exit.o)
 .debug_line    0x0000a66f      0x18d d:/altera13.1/nios2eds/bin/gnu/h-i686-mingw32/bin/../lib/gcc/nios2-elf/4.7.3/../../../../../H-i686-mingw32/nios2-elf/lib\libc.a(lib_a-memcmp.o)
 .debug_line    0x0000a7fc      0x250 d:/altera13.1/nios2eds/bin/gnu/h-i686-mingw32/bin/../lib/gcc/nios2-elf/4.7.3/../../../../../H-i686-mingw32/nios2-elf/lib\libc.a(lib_a-__atexit.o)
 .debug_line    0x0000aa4c      0x264 d:/altera13.1/nios2eds/bin/gnu/h-i686-mingw32/bin/../lib/gcc/nios2-elf/4.7.3/../../../../../H-i686-mingw32/nios2-elf/lib\libc.a(lib_a-__call_atexit.o)
 .debug_line    0x0000acb0       0x71 ../DE1_SoC_SDRAM_Nios_Test_bsp/\libhal_bsp.a(alt_exit.o)

.debug_frame    0x00000000     0x1918
 *(.debug_frame)
 .debug_frame   0x00000000       0x30 obj/default/main.o
 .debug_frame   0x00000030       0x4c obj/default/mem_verify.o
 .debug_frame   0x0000007c       0x70 d:/altera13.1/nios2eds/bin/gnu/h-i686-mingw32/bin/../lib/gcc/nios2-elf/4.7.3\libgcc.a(lib2-divmod.o)
 .debug_frame   0x000000ec       0x20 d:/altera13.1/nios2eds/bin/gnu/h-i686-mingw32/bin/../lib/gcc/nios2-elf/4.7.3/../../../../../H-i686-mingw32/nios2-elf/lib\libc.a(lib_a-memcpy.o)
 .debug_frame   0x0000010c       0x40 d:/altera13.1/nios2eds/bin/gnu/h-i686-mingw32/bin/../lib/gcc/nios2-elf/4.7.3/../../../../../H-i686-mingw32/nios2-elf/lib\libc.a(lib_a-printf.o)
 .debug_frame   0x0000014c       0x30 d:/altera13.1/nios2eds/bin/gnu/h-i686-mingw32/bin/../lib/gcc/nios2-elf/4.7.3/../../../../../H-i686-mingw32/nios2-elf/lib\libc.a(lib_a-putchar.o)
 .debug_frame   0x0000017c       0x3c d:/altera13.1/nios2eds/bin/gnu/h-i686-mingw32/bin/../lib/gcc/nios2-elf/4.7.3/../../../../../H-i686-mingw32/nios2-elf/lib\libc.a(lib_a-puts.o)
 .debug_frame   0x000001b8       0x3c d:/altera13.1/nios2eds/bin/gnu/h-i686-mingw32/bin/../lib/gcc/nios2-elf/4.7.3/../../../../../H-i686-mingw32/nios2-elf/lib\libc.a(lib_a-rand.o)
 .debug_frame   0x000001f4       0x20 d:/altera13.1/nios2eds/bin/gnu/h-i686-mingw32/bin/../lib/gcc/nios2-elf/4.7.3/../../../../../H-i686-mingw32/nios2-elf/lib\libc.a(lib_a-strlen.o)
 .debug_frame   0x00000214       0x64 d:/altera13.1/nios2eds/bin/gnu/h-i686-mingw32/bin/../lib/gcc/nios2-elf/4.7.3/../../../../../H-i686-mingw32/nios2-elf/lib\libc.a(lib_a-vfprintf.o)
 .debug_frame   0x00000278       0x2c d:/altera13.1/nios2eds/bin/gnu/h-i686-mingw32/bin/../lib/gcc/nios2-elf/4.7.3/../../../../../H-i686-mingw32/nios2-elf/lib\libc.a(lib_a-wsetup.o)
 .debug_frame   0x000002a4       0x64 d:/altera13.1/nios2eds/bin/gnu/h-i686-mingw32/bin/../lib/gcc/nios2-elf/4.7.3/../../../../../H-i686-mingw32/nios2-elf/lib\libc.a(lib_a-dtoa.o)
 .debug_frame   0x00000308       0x40 d:/altera13.1/nios2eds/bin/gnu/h-i686-mingw32/bin/../lib/gcc/nios2-elf/4.7.3/../../../../../H-i686-mingw32/nios2-elf/lib\libc.a(lib_a-fflush.o)
 .debug_frame   0x00000348      0x100 d:/altera13.1/nios2eds/bin/gnu/h-i686-mingw32/bin/../lib/gcc/nios2-elf/4.7.3/../../../../../H-i686-mingw32/nios2-elf/lib\libc.a(lib_a-findfp.o)
 .debug_frame   0x00000448       0x4c d:/altera13.1/nios2eds/bin/gnu/h-i686-mingw32/bin/../lib/gcc/nios2-elf/4.7.3/../../../../../H-i686-mingw32/nios2-elf/lib\libc.a(lib_a-freer.o)
 .debug_frame   0x00000494       0x38 d:/altera13.1/nios2eds/bin/gnu/h-i686-mingw32/bin/../lib/gcc/nios2-elf/4.7.3/../../../../../H-i686-mingw32/nios2-elf/lib\libc.a(lib_a-fvwrite.o)
 .debug_frame   0x000004cc       0x5c d:/altera13.1/nios2eds/bin/gnu/h-i686-mingw32/bin/../lib/gcc/nios2-elf/4.7.3/../../../../../H-i686-mingw32/nios2-elf/lib\libc.a(lib_a-fwalk.o)
 .debug_frame   0x00000528       0x6c d:/altera13.1/nios2eds/bin/gnu/h-i686-mingw32/bin/../lib/gcc/nios2-elf/4.7.3/../../../../../H-i686-mingw32/nios2-elf/lib\libc.a(lib_a-locale.o)
 .debug_frame   0x00000594       0x2c d:/altera13.1/nios2eds/bin/gnu/h-i686-mingw32/bin/../lib/gcc/nios2-elf/4.7.3/../../../../../H-i686-mingw32/nios2-elf/lib\libc.a(lib_a-makebuf.o)
 .debug_frame   0x000005c0       0x38 d:/altera13.1/nios2eds/bin/gnu/h-i686-mingw32/bin/../lib/gcc/nios2-elf/4.7.3/../../../../../H-i686-mingw32/nios2-elf/lib\libc.a(lib_a-mallocr.o)
 .debug_frame   0x000005f8       0x20 d:/altera13.1/nios2eds/bin/gnu/h-i686-mingw32/bin/../lib/gcc/nios2-elf/4.7.3/../../../../../H-i686-mingw32/nios2-elf/lib\libc.a(lib_a-memchr.o)
 .debug_frame   0x00000618       0x20 d:/altera13.1/nios2eds/bin/gnu/h-i686-mingw32/bin/../lib/gcc/nios2-elf/4.7.3/../../../../../H-i686-mingw32/nios2-elf/lib\libc.a(lib_a-memmove.o)
 .debug_frame   0x00000638       0x20 d:/altera13.1/nios2eds/bin/gnu/h-i686-mingw32/bin/../lib/gcc/nios2-elf/4.7.3/../../../../../H-i686-mingw32/nios2-elf/lib\libc.a(lib_a-memset.o)
 .debug_frame   0x00000658      0x204 d:/altera13.1/nios2eds/bin/gnu/h-i686-mingw32/bin/../lib/gcc/nios2-elf/4.7.3/../../../../../H-i686-mingw32/nios2-elf/lib\libc.a(lib_a-mprec.o)
 .debug_frame   0x0000085c       0x48 d:/altera13.1/nios2eds/bin/gnu/h-i686-mingw32/bin/../lib/gcc/nios2-elf/4.7.3/../../../../../H-i686-mingw32/nios2-elf/lib\libc.a(lib_a-putc.o)
 .debug_frame   0x000008a4       0x38 d:/altera13.1/nios2eds/bin/gnu/h-i686-mingw32/bin/../lib/gcc/nios2-elf/4.7.3/../../../../../H-i686-mingw32/nios2-elf/lib\libc.a(lib_a-reallocr.o)
 .debug_frame   0x000008dc       0x20 d:/altera13.1/nios2eds/bin/gnu/h-i686-mingw32/bin/../lib/gcc/nios2-elf/4.7.3/../../../../../H-i686-mingw32/nios2-elf/lib\libc.a(lib_a-s_isinfd.o)
 .debug_frame   0x000008fc       0x20 d:/altera13.1/nios2eds/bin/gnu/h-i686-mingw32/bin/../lib/gcc/nios2-elf/4.7.3/../../../../../H-i686-mingw32/nios2-elf/lib\libc.a(lib_a-s_isnand.o)
 .debug_frame   0x0000091c       0x2c d:/altera13.1/nios2eds/bin/gnu/h-i686-mingw32/bin/../lib/gcc/nios2-elf/4.7.3/../../../../../H-i686-mingw32/nios2-elf/lib\libc.a(lib_a-sbrkr.o)
 .debug_frame   0x00000948       0x78 d:/altera13.1/nios2eds/bin/gnu/h-i686-mingw32/bin/../lib/gcc/nios2-elf/4.7.3/../../../../../H-i686-mingw32/nios2-elf/lib\libc.a(lib_a-stdio.o)
 .debug_frame   0x000009c0       0x20 d:/altera13.1/nios2eds/bin/gnu/h-i686-mingw32/bin/../lib/gcc/nios2-elf/4.7.3/../../../../../H-i686-mingw32/nios2-elf/lib\libc.a(lib_a-strcmp.o)
 .debug_frame   0x000009e0       0x3c d:/altera13.1/nios2eds/bin/gnu/h-i686-mingw32/bin/../lib/gcc/nios2-elf/4.7.3/../../../../../H-i686-mingw32/nios2-elf/lib\libc.a(lib_a-wbuf.o)
 .debug_frame   0x00000a1c       0x2c d:/altera13.1/nios2eds/bin/gnu/h-i686-mingw32/bin/../lib/gcc/nios2-elf/4.7.3/../../../../../H-i686-mingw32/nios2-elf/lib\libc.a(lib_a-writer.o)
 .debug_frame   0x00000a48       0x28 d:/altera13.1/nios2eds/bin/gnu/h-i686-mingw32/bin/../lib/gcc/nios2-elf/4.7.3/../../../../../H-i686-mingw32/nios2-elf/lib\libc.a(lib_a-callocr.o)
 .debug_frame   0x00000a70       0x2c d:/altera13.1/nios2eds/bin/gnu/h-i686-mingw32/bin/../lib/gcc/nios2-elf/4.7.3/../../../../../H-i686-mingw32/nios2-elf/lib\libc.a(lib_a-closer.o)
 .debug_frame   0x00000a9c       0x3c d:/altera13.1/nios2eds/bin/gnu/h-i686-mingw32/bin/../lib/gcc/nios2-elf/4.7.3/../../../../../H-i686-mingw32/nios2-elf/lib\libc.a(lib_a-fclose.o)
 .debug_frame   0x00000ad8       0x2c d:/altera13.1/nios2eds/bin/gnu/h-i686-mingw32/bin/../lib/gcc/nios2-elf/4.7.3/../../../../../H-i686-mingw32/nios2-elf/lib\libc.a(lib_a-fstatr.o)
 .debug_frame   0x00000b04       0x2c d:/altera13.1/nios2eds/bin/gnu/h-i686-mingw32/bin/../lib/gcc/nios2-elf/4.7.3/../../../../../H-i686-mingw32/nios2-elf/lib\libc.a(lib_a-isattyr.o)
 .debug_frame   0x00000b30       0x2c d:/altera13.1/nios2eds/bin/gnu/h-i686-mingw32/bin/../lib/gcc/nios2-elf/4.7.3/../../../../../H-i686-mingw32/nios2-elf/lib\libc.a(lib_a-lseekr.o)
 .debug_frame   0x00000b5c       0x2c d:/altera13.1/nios2eds/bin/gnu/h-i686-mingw32/bin/../lib/gcc/nios2-elf/4.7.3/../../../../../H-i686-mingw32/nios2-elf/lib\libc.a(lib_a-readr.o)
 .debug_frame   0x00000b88       0x20 d:/altera13.1/nios2eds/bin/gnu/h-i686-mingw32/bin/../lib/gcc/nios2-elf/4.7.3\libgcc.a(_muldi3.o)
 .debug_frame   0x00000ba8       0x38 d:/altera13.1/nios2eds/bin/gnu/h-i686-mingw32/bin/../lib/gcc/nios2-elf/4.7.3\libgcc.a(_udivdi3.o)
 .debug_frame   0x00000be0       0x38 d:/altera13.1/nios2eds/bin/gnu/h-i686-mingw32/bin/../lib/gcc/nios2-elf/4.7.3\libgcc.a(_umoddi3.o)
 .debug_frame   0x00000c18       0x50 d:/altera13.1/nios2eds/bin/gnu/h-i686-mingw32/bin/../lib/gcc/nios2-elf/4.7.3\libgcc.a(_addsub_df.o)
 .debug_frame   0x00000c68       0x38 d:/altera13.1/nios2eds/bin/gnu/h-i686-mingw32/bin/../lib/gcc/nios2-elf/4.7.3\libgcc.a(_mul_df.o)
 .debug_frame   0x00000ca0       0x28 d:/altera13.1/nios2eds/bin/gnu/h-i686-mingw32/bin/../lib/gcc/nios2-elf/4.7.3\libgcc.a(_div_df.o)
 .debug_frame   0x00000cc8       0x28 d:/altera13.1/nios2eds/bin/gnu/h-i686-mingw32/bin/../lib/gcc/nios2-elf/4.7.3\libgcc.a(_eq_df.o)
 .debug_frame   0x00000cf0       0x28 d:/altera13.1/nios2eds/bin/gnu/h-i686-mingw32/bin/../lib/gcc/nios2-elf/4.7.3\libgcc.a(_ne_df.o)
 .debug_frame   0x00000d18       0x28 d:/altera13.1/nios2eds/bin/gnu/h-i686-mingw32/bin/../lib/gcc/nios2-elf/4.7.3\libgcc.a(_gt_df.o)
 .debug_frame   0x00000d40       0x28 d:/altera13.1/nios2eds/bin/gnu/h-i686-mingw32/bin/../lib/gcc/nios2-elf/4.7.3\libgcc.a(_ge_df.o)
 .debug_frame   0x00000d68       0x28 d:/altera13.1/nios2eds/bin/gnu/h-i686-mingw32/bin/../lib/gcc/nios2-elf/4.7.3\libgcc.a(_lt_df.o)
 .debug_frame   0x00000d90       0x28 d:/altera13.1/nios2eds/bin/gnu/h-i686-mingw32/bin/../lib/gcc/nios2-elf/4.7.3\libgcc.a(_si_to_df.o)
 .debug_frame   0x00000db8       0x28 d:/altera13.1/nios2eds/bin/gnu/h-i686-mingw32/bin/../lib/gcc/nios2-elf/4.7.3\libgcc.a(_df_to_si.o)
 .debug_frame   0x00000de0       0x28 d:/altera13.1/nios2eds/bin/gnu/h-i686-mingw32/bin/../lib/gcc/nios2-elf/4.7.3\libgcc.a(_usi_to_df.o)
 .debug_frame   0x00000e08       0x20 d:/altera13.1/nios2eds/bin/gnu/h-i686-mingw32/bin/../lib/gcc/nios2-elf/4.7.3\libgcc.a(_clzsi2.o)
 .debug_frame   0x00000e28       0x34 d:/altera13.1/nios2eds/bin/gnu/h-i686-mingw32/bin/../lib/gcc/nios2-elf/4.7.3\libgcc.a(_pack_df.o)
 .debug_frame   0x00000e5c       0x20 d:/altera13.1/nios2eds/bin/gnu/h-i686-mingw32/bin/../lib/gcc/nios2-elf/4.7.3\libgcc.a(_unpack_df.o)
 .debug_frame   0x00000e7c       0x20 d:/altera13.1/nios2eds/bin/gnu/h-i686-mingw32/bin/../lib/gcc/nios2-elf/4.7.3\libgcc.a(_fpcmp_parts_df.o)
 .debug_frame   0x00000e9c       0x20 d:/altera13.1/nios2eds/bin/gnu/h-i686-mingw32/bin/../lib/gcc/nios2-elf/4.7.3\libgcc.a(_lshrdi3.o)
 .debug_frame   0x00000ebc       0x20 d:/altera13.1/nios2eds/bin/gnu/h-i686-mingw32/bin/../lib/gcc/nios2-elf/4.7.3\libgcc.a(_ashldi3.o)
 .debug_frame   0x00000edc       0x48 ../DE1_SoC_SDRAM_Nios_Test_bsp/\libhal_bsp.a(alt_close.o)
 .debug_frame   0x00000f24       0x2c ../DE1_SoC_SDRAM_Nios_Test_bsp/\libhal_bsp.a(alt_dcache_flush_all.o)
 .debug_frame   0x00000f50       0x2c ../DE1_SoC_SDRAM_Nios_Test_bsp/\libhal_bsp.a(alt_dev.o)
 .debug_frame   0x00000f7c       0x48 ../DE1_SoC_SDRAM_Nios_Test_bsp/\libhal_bsp.a(alt_fstat.o)
 .debug_frame   0x00000fc4       0x48 ../DE1_SoC_SDRAM_Nios_Test_bsp/\libhal_bsp.a(alt_isatty.o)
 .debug_frame   0x0000100c       0x48 ../DE1_SoC_SDRAM_Nios_Test_bsp/\libhal_bsp.a(alt_load.o)
 .debug_frame   0x00001054       0x48 ../DE1_SoC_SDRAM_Nios_Test_bsp/\libhal_bsp.a(alt_lseek.o)
 .debug_frame   0x0000109c       0x2c ../DE1_SoC_SDRAM_Nios_Test_bsp/\libhal_bsp.a(alt_main.o)
 .debug_frame   0x000010c8       0x48 ../DE1_SoC_SDRAM_Nios_Test_bsp/\libhal_bsp.a(alt_malloc_lock.o)
 .debug_frame   0x00001110       0x48 ../DE1_SoC_SDRAM_Nios_Test_bsp/\libhal_bsp.a(alt_read.o)
 .debug_frame   0x00001158       0x2c ../DE1_SoC_SDRAM_Nios_Test_bsp/\libhal_bsp.a(alt_release_fd.o)
 .debug_frame   0x00001184       0x2c ../DE1_SoC_SDRAM_Nios_Test_bsp/\libhal_bsp.a(alt_sbrk.o)
 .debug_frame   0x000011b0       0x48 ../DE1_SoC_SDRAM_Nios_Test_bsp/\libhal_bsp.a(alt_tick.o)
 .debug_frame   0x000011f8       0x2c ../DE1_SoC_SDRAM_Nios_Test_bsp/\libhal_bsp.a(alt_usleep.o)
 .debug_frame   0x00001224       0x48 ../DE1_SoC_SDRAM_Nios_Test_bsp/\libhal_bsp.a(alt_write.o)
 .debug_frame   0x0000126c       0x64 ../DE1_SoC_SDRAM_Nios_Test_bsp/\libhal_bsp.a(alt_sys_init.o)
 .debug_frame   0x000012d0       0x80 ../DE1_SoC_SDRAM_Nios_Test_bsp/\libhal_bsp.a(altera_avalon_jtag_uart_fd.o)
 .debug_frame   0x00001350       0x80 ../DE1_SoC_SDRAM_Nios_Test_bsp/\libhal_bsp.a(altera_avalon_jtag_uart_init.o)
 .debug_frame   0x000013d0       0x2c ../DE1_SoC_SDRAM_Nios_Test_bsp/\libhal_bsp.a(altera_avalon_jtag_uart_ioctl.o)
 .debug_frame   0x000013fc       0x2c ../DE1_SoC_SDRAM_Nios_Test_bsp/\libhal_bsp.a(altera_avalon_jtag_uart_read.o)
 .debug_frame   0x00001428       0x2c ../DE1_SoC_SDRAM_Nios_Test_bsp/\libhal_bsp.a(altera_avalon_jtag_uart_write.o)
 .debug_frame   0x00001454       0x48 ../DE1_SoC_SDRAM_Nios_Test_bsp/\libhal_bsp.a(altera_avalon_timer_sc.o)
 .debug_frame   0x0000149c       0x2c ../DE1_SoC_SDRAM_Nios_Test_bsp/\libhal_bsp.a(alt_alarm_start.o)
 .debug_frame   0x000014c8       0x2c ../DE1_SoC_SDRAM_Nios_Test_bsp/\libhal_bsp.a(alt_busy_sleep.o)
 .debug_frame   0x000014f4       0x48 ../DE1_SoC_SDRAM_Nios_Test_bsp/\libhal_bsp.a(alt_dev_llist_insert.o)
 .debug_frame   0x0000153c       0x2c ../DE1_SoC_SDRAM_Nios_Test_bsp/\libhal_bsp.a(alt_do_ctors.o)
 .debug_frame   0x00001568       0x2c ../DE1_SoC_SDRAM_Nios_Test_bsp/\libhal_bsp.a(alt_do_dtors.o)
 .debug_frame   0x00001594       0x2c ../DE1_SoC_SDRAM_Nios_Test_bsp/\libhal_bsp.a(alt_icache_flush_all.o)
 .debug_frame   0x000015c0       0x80 ../DE1_SoC_SDRAM_Nios_Test_bsp/\libhal_bsp.a(alt_iic.o)
 .debug_frame   0x00001640       0x2c ../DE1_SoC_SDRAM_Nios_Test_bsp/\libhal_bsp.a(alt_iic_isr_register.o)
 .debug_frame   0x0000166c       0x48 ../DE1_SoC_SDRAM_Nios_Test_bsp/\libhal_bsp.a(alt_io_redirect.o)
 .debug_frame   0x000016b4       0x2c ../DE1_SoC_SDRAM_Nios_Test_bsp/\libhal_bsp.a(alt_irq_handler.o)
 .debug_frame   0x000016e0       0x64 ../DE1_SoC_SDRAM_Nios_Test_bsp/\libhal_bsp.a(alt_open.o)
 .debug_frame   0x00001744       0x2c ../DE1_SoC_SDRAM_Nios_Test_bsp/\libhal_bsp.a(altera_nios2_qsys_irq.o)
 .debug_frame   0x00001770       0x2c ../DE1_SoC_SDRAM_Nios_Test_bsp/\libhal_bsp.a(alt_find_dev.o)
 .debug_frame   0x0000179c       0x2c ../DE1_SoC_SDRAM_Nios_Test_bsp/\libhal_bsp.a(alt_find_file.o)
 .debug_frame   0x000017c8       0x2c ../DE1_SoC_SDRAM_Nios_Test_bsp/\libhal_bsp.a(alt_get_fd.o)
 .debug_frame   0x000017f4       0x2c ../DE1_SoC_SDRAM_Nios_Test_bsp/\libhal_bsp.a(alt_icache_flush.o)
 .debug_frame   0x00001820       0x20 d:/altera13.1/nios2eds/bin/gnu/h-i686-mingw32/bin/../lib/gcc/nios2-elf/4.7.3/../../../../../H-i686-mingw32/nios2-elf/lib\libc.a(lib_a-atexit.o)
 .debug_frame   0x00001840       0x28 d:/altera13.1/nios2eds/bin/gnu/h-i686-mingw32/bin/../lib/gcc/nios2-elf/4.7.3/../../../../../H-i686-mingw32/nios2-elf/lib\libc.a(lib_a-exit.o)
 .debug_frame   0x00001868       0x20 d:/altera13.1/nios2eds/bin/gnu/h-i686-mingw32/bin/../lib/gcc/nios2-elf/4.7.3/../../../../../H-i686-mingw32/nios2-elf/lib\libc.a(lib_a-memcmp.o)
 .debug_frame   0x00001888       0x2c d:/altera13.1/nios2eds/bin/gnu/h-i686-mingw32/bin/../lib/gcc/nios2-elf/4.7.3/../../../../../H-i686-mingw32/nios2-elf/lib\libc.a(lib_a-__atexit.o)
 .debug_frame   0x000018b4       0x38 d:/altera13.1/nios2eds/bin/gnu/h-i686-mingw32/bin/../lib/gcc/nios2-elf/4.7.3/../../../../../H-i686-mingw32/nios2-elf/lib\libc.a(lib_a-__call_atexit.o)
 .debug_frame   0x000018ec       0x2c ../DE1_SoC_SDRAM_Nios_Test_bsp/\libhal_bsp.a(alt_exit.o)

.debug_str      0x00000000     0x2f91
 *(.debug_str)
 .debug_str     0x00000000      0x1ad obj/default/main.o
                                0x209 (size before relaxing)
 .debug_str     0x000001ad       0xe1 obj/default/mem_verify.o
                                0x290 (size before relaxing)
 .debug_str     0x0000028e      0x104 d:/altera13.1/nios2eds/bin/gnu/h-i686-mingw32/bin/../lib/gcc/nios2-elf/4.7.3\libgcc.a(lib2-divmod.o)
                                0x15b (size before relaxing)
 .debug_str     0x00000392       0xf8 d:/altera13.1/nios2eds/bin/gnu/h-i686-mingw32/bin/../lib/gcc/nios2-elf/4.7.3/../../../../../H-i686-mingw32/nios2-elf/lib\libc.a(lib_a-memcpy.o)
                                0x126 (size before relaxing)
 .debug_str     0x0000048a      0x44f d:/altera13.1/nios2eds/bin/gnu/h-i686-mingw32/bin/../lib/gcc/nios2-elf/4.7.3/../../../../../H-i686-mingw32/nios2-elf/lib\libc.a(lib_a-printf.o)
                                0x571 (size before relaxing)
 .debug_str     0x000008d9       0x56 d:/altera13.1/nios2eds/bin/gnu/h-i686-mingw32/bin/../lib/gcc/nios2-elf/4.7.3/../../../../../H-i686-mingw32/nios2-elf/lib\libc.a(lib_a-putchar.o)
                                0x528 (size before relaxing)
 .debug_str     0x0000092f       0x95 d:/altera13.1/nios2eds/bin/gnu/h-i686-mingw32/bin/../lib/gcc/nios2-elf/4.7.3/../../../../../H-i686-mingw32/nios2-elf/lib\libc.a(lib_a-puts.o)
                                0x56e (size before relaxing)
 .debug_str     0x000009c4       0xce d:/altera13.1/nios2eds/bin/gnu/h-i686-mingw32/bin/../lib/gcc/nios2-elf/4.7.3/../../../../../H-i686-mingw32/nios2-elf/lib\libc.a(lib_a-rand.o)
                                0x517 (size before relaxing)
 .debug_str     0x00000a92       0x48 d:/altera13.1/nios2eds/bin/gnu/h-i686-mingw32/bin/../lib/gcc/nios2-elf/4.7.3/../../../../../H-i686-mingw32/nios2-elf/lib\libc.a(lib_a-strlen.o)
                                0x189 (size before relaxing)
 .debug_str     0x00000ada      0x28f d:/altera13.1/nios2eds/bin/gnu/h-i686-mingw32/bin/../lib/gcc/nios2-elf/4.7.3/../../../../../H-i686-mingw32/nios2-elf/lib\libc.a(lib_a-vfprintf.o)
                                0x888 (size before relaxing)
 .debug_str     0x00000d69       0x4f d:/altera13.1/nios2eds/bin/gnu/h-i686-mingw32/bin/../lib/gcc/nios2-elf/4.7.3/../../../../../H-i686-mingw32/nios2-elf/lib\libc.a(lib_a-wsetup.o)
                                0x535 (size before relaxing)
 .debug_str     0x00000db8      0x157 d:/altera13.1/nios2eds/bin/gnu/h-i686-mingw32/bin/../lib/gcc/nios2-elf/4.7.3/../../../../../H-i686-mingw32/nios2-elf/lib\libc.a(lib_a-dtoa.o)
                                0x678 (size before relaxing)
 .debug_str     0x00000f0f       0x5b d:/altera13.1/nios2eds/bin/gnu/h-i686-mingw32/bin/../lib/gcc/nios2-elf/4.7.3/../../../../../H-i686-mingw32/nios2-elf/lib\libc.a(lib_a-fflush.o)
                                0x553 (size before relaxing)
 .debug_str     0x00000f6a      0x10b d:/altera13.1/nios2eds/bin/gnu/h-i686-mingw32/bin/../lib/gcc/nios2-elf/4.7.3/../../../../../H-i686-mingw32/nios2-elf/lib\libc.a(lib_a-findfp.o)
                                0x61f (size before relaxing)
 .debug_str     0x00001075      0x183 d:/altera13.1/nios2eds/bin/gnu/h-i686-mingw32/bin/../lib/gcc/nios2-elf/4.7.3/../../../../../H-i686-mingw32/nios2-elf/lib\libc.a(lib_a-freer.o)
                                0x67f (size before relaxing)
 .debug_str     0x000011f8       0x6c d:/altera13.1/nios2eds/bin/gnu/h-i686-mingw32/bin/../lib/gcc/nios2-elf/4.7.3/../../../../../H-i686-mingw32/nios2-elf/lib\libc.a(lib_a-fvwrite.o)
                                0x5b8 (size before relaxing)
 .debug_str     0x00001264       0x5e d:/altera13.1/nios2eds/bin/gnu/h-i686-mingw32/bin/../lib/gcc/nios2-elf/4.7.3/../../../../../H-i686-mingw32/nios2-elf/lib\libc.a(lib_a-fwalk.o)
                                0x567 (size before relaxing)
 .debug_str     0x000012c2       0xd4 d:/altera13.1/nios2eds/bin/gnu/h-i686-mingw32/bin/../lib/gcc/nios2-elf/4.7.3/../../../../../H-i686-mingw32/nios2-elf/lib\libc.a(lib_a-impure.o)
                                0x526 (size before relaxing)
 .debug_str     0x00001396      0x14c d:/altera13.1/nios2eds/bin/gnu/h-i686-mingw32/bin/../lib/gcc/nios2-elf/4.7.3/../../../../../H-i686-mingw32/nios2-elf/lib\libc.a(lib_a-locale.o)
                                0x6bc (size before relaxing)
 .debug_str     0x000014e2      0x129 d:/altera13.1/nios2eds/bin/gnu/h-i686-mingw32/bin/../lib/gcc/nios2-elf/4.7.3/../../../../../H-i686-mingw32/nios2-elf/lib\libc.a(lib_a-makebuf.o)
                                0x62f (size before relaxing)
 .debug_str     0x0000160b       0xe5 d:/altera13.1/nios2eds/bin/gnu/h-i686-mingw32/bin/../lib/gcc/nios2-elf/4.7.3/../../../../../H-i686-mingw32/nios2-elf/lib\libc.a(lib_a-mallocr.o)
                                0x735 (size before relaxing)
 .debug_str     0x000016f0       0x50 d:/altera13.1/nios2eds/bin/gnu/h-i686-mingw32/bin/../lib/gcc/nios2-elf/4.7.3/../../../../../H-i686-mingw32/nios2-elf/lib\libc.a(lib_a-memchr.o)
                                0x197 (size before relaxing)
 .debug_str     0x00001740       0x45 d:/altera13.1/nios2eds/bin/gnu/h-i686-mingw32/bin/../lib/gcc/nios2-elf/4.7.3/../../../../../H-i686-mingw32/nios2-elf/lib\libc.a(lib_a-memmove.o)
                                0x1a9 (size before relaxing)
 .debug_str     0x00001785       0x3b d:/altera13.1/nios2eds/bin/gnu/h-i686-mingw32/bin/../lib/gcc/nios2-elf/4.7.3/../../../../../H-i686-mingw32/nios2-elf/lib\libc.a(lib_a-memset.o)
                                0x18a (size before relaxing)
 .debug_str     0x000017c0       0xa5 d:/altera13.1/nios2eds/bin/gnu/h-i686-mingw32/bin/../lib/gcc/nios2-elf/4.7.3/../../../../../H-i686-mingw32/nios2-elf/lib\libc.a(lib_a-mprec.o)
                                0x632 (size before relaxing)
 .debug_str     0x00001865       0x47 d:/altera13.1/nios2eds/bin/gnu/h-i686-mingw32/bin/../lib/gcc/nios2-elf/4.7.3/../../../../../H-i686-mingw32/nios2-elf/lib\libc.a(lib_a-putc.o)
                                0x530 (size before relaxing)
 .debug_str     0x000018ac       0x4e d:/altera13.1/nios2eds/bin/gnu/h-i686-mingw32/bin/../lib/gcc/nios2-elf/4.7.3/../../../../../H-i686-mingw32/nios2-elf/lib\libc.a(lib_a-reallocr.o)
                                0x607 (size before relaxing)
 .debug_str     0x000018fa       0xd6 d:/altera13.1/nios2eds/bin/gnu/h-i686-mingw32/bin/../lib/gcc/nios2-elf/4.7.3/../../../../../H-i686-mingw32/nios2-elf/lib\libc.a(lib_a-s_isinfd.o)
                                0x1a1 (size before relaxing)
 .debug_str     0x000019d0       0x3d d:/altera13.1/nios2eds/bin/gnu/h-i686-mingw32/bin/../lib/gcc/nios2-elf/4.7.3/../../../../../H-i686-mingw32/nios2-elf/lib\libc.a(lib_a-s_isnand.o)
                                0x1a1 (size before relaxing)
 .debug_str     0x00001a0d       0x43 d:/altera13.1/nios2eds/bin/gnu/h-i686-mingw32/bin/../lib/gcc/nios2-elf/4.7.3/../../../../../H-i686-mingw32/nios2-elf/lib\libc.a(lib_a-sbrkr.o)
                                0x51c (size before relaxing)
 .debug_str     0x00001a50       0x8e d:/altera13.1/nios2eds/bin/gnu/h-i686-mingw32/bin/../lib/gcc/nios2-elf/4.7.3/../../../../../H-i686-mingw32/nios2-elf/lib\libc.a(lib_a-stdio.o)
                                0x570 (size before relaxing)
 .debug_str     0x00001ade       0x3b d:/altera13.1/nios2eds/bin/gnu/h-i686-mingw32/bin/../lib/gcc/nios2-elf/4.7.3/../../../../../H-i686-mingw32/nios2-elf/lib\libc.a(lib_a-strcmp.o)
                                0x16f (size before relaxing)
 .debug_str     0x00001b19       0x40 d:/altera13.1/nios2eds/bin/gnu/h-i686-mingw32/bin/../lib/gcc/nios2-elf/4.7.3/../../../../../H-i686-mingw32/nios2-elf/lib\libc.a(lib_a-wbuf.o)
                                0x53a (size before relaxing)
 .debug_str     0x00001b59       0x3a d:/altera13.1/nios2eds/bin/gnu/h-i686-mingw32/bin/../lib/gcc/nios2-elf/4.7.3/../../../../../H-i686-mingw32/nios2-elf/lib\libc.a(lib_a-writer.o)
                                0x520 (size before relaxing)
 .debug_str     0x00001b93        0xf d:/altera13.1/nios2eds/bin/gnu/h-i686-mingw32/bin/../lib/gcc/nios2-elf/4.7.3/../../../../../H-i686-mingw32/nios2-elf/lib\libc.a(lib_a-callocr.o)
                                0x55f (size before relaxing)
 .debug_str     0x00001ba2       0x3a d:/altera13.1/nios2eds/bin/gnu/h-i686-mingw32/bin/../lib/gcc/nios2-elf/4.7.3/../../../../../H-i686-mingw32/nios2-elf/lib\libc.a(lib_a-closer.o)
                                0x510 (size before relaxing)
 .debug_str     0x00001bdc       0x4b d:/altera13.1/nios2eds/bin/gnu/h-i686-mingw32/bin/../lib/gcc/nios2-elf/4.7.3/../../../../../H-i686-mingw32/nios2-elf/lib\libc.a(lib_a-fclose.o)
                                0x562 (size before relaxing)
 .debug_str     0x00001c27       0x46 d:/altera13.1/nios2eds/bin/gnu/h-i686-mingw32/bin/../lib/gcc/nios2-elf/4.7.3/../../../../../H-i686-mingw32/nios2-elf/lib\libc.a(lib_a-fstatr.o)
                                0x603 (size before relaxing)
 .debug_str     0x00001c6d       0x3d d:/altera13.1/nios2eds/bin/gnu/h-i686-mingw32/bin/../lib/gcc/nios2-elf/4.7.3/../../../../../H-i686-mingw32/nios2-elf/lib\libc.a(lib_a-int_errno.o)
                                0x16f (size before relaxing)
 .debug_str     0x00001caa       0x42 d:/altera13.1/nios2eds/bin/gnu/h-i686-mingw32/bin/../lib/gcc/nios2-elf/4.7.3/../../../../../H-i686-mingw32/nios2-elf/lib\libc.a(lib_a-isattyr.o)
                                0x513 (size before relaxing)
 .debug_str     0x00001cec       0x40 d:/altera13.1/nios2eds/bin/gnu/h-i686-mingw32/bin/../lib/gcc/nios2-elf/4.7.3/../../../../../H-i686-mingw32/nios2-elf/lib\libc.a(lib_a-lseekr.o)
                                0x524 (size before relaxing)
 .debug_str     0x00001d2c       0x39 d:/altera13.1/nios2eds/bin/gnu/h-i686-mingw32/bin/../lib/gcc/nios2-elf/4.7.3/../../../../../H-i686-mingw32/nios2-elf/lib\libc.a(lib_a-readr.o)
                                0x51d (size before relaxing)
 .debug_str     0x00001d65       0x8a d:/altera13.1/nios2eds/bin/gnu/h-i686-mingw32/bin/../lib/gcc/nios2-elf/4.7.3\libgcc.a(_muldi3.o)
                                0x1a2 (size before relaxing)
 .debug_str     0x00001def       0x54 d:/altera13.1/nios2eds/bin/gnu/h-i686-mingw32/bin/../lib/gcc/nios2-elf/4.7.3\libgcc.a(_udivdi3.o)
                                0x1f6 (size before relaxing)
 .debug_str     0x00001e43        0xa d:/altera13.1/nios2eds/bin/gnu/h-i686-mingw32/bin/../lib/gcc/nios2-elf/4.7.3\libgcc.a(_umoddi3.o)
                                0x1f6 (size before relaxing)
 .debug_str     0x00001e4d      0x16f d:/altera13.1/nios2eds/bin/gnu/h-i686-mingw32/bin/../lib/gcc/nios2-elf/4.7.3\libgcc.a(_addsub_df.o)
                                0x2a9 (size before relaxing)
 .debug_str     0x00001fbc       0x40 d:/altera13.1/nios2eds/bin/gnu/h-i686-mingw32/bin/../lib/gcc/nios2-elf/4.7.3\libgcc.a(_mul_df.o)
                                0x27b (size before relaxing)
 .debug_str     0x00001ffc       0x35 d:/altera13.1/nios2eds/bin/gnu/h-i686-mingw32/bin/../lib/gcc/nios2-elf/4.7.3\libgcc.a(_div_df.o)
                                0x26b (size before relaxing)
 .debug_str     0x00002031       0x20 d:/altera13.1/nios2eds/bin/gnu/h-i686-mingw32/bin/../lib/gcc/nios2-elf/4.7.3\libgcc.a(_eq_df.o)
                                0x238 (size before relaxing)
 .debug_str     0x00002051        0x8 d:/altera13.1/nios2eds/bin/gnu/h-i686-mingw32/bin/../lib/gcc/nios2-elf/4.7.3\libgcc.a(_ne_df.o)
                                0x238 (size before relaxing)
 .debug_str     0x00002059        0x8 d:/altera13.1/nios2eds/bin/gnu/h-i686-mingw32/bin/../lib/gcc/nios2-elf/4.7.3\libgcc.a(_gt_df.o)
                                0x238 (size before relaxing)
 .debug_str     0x00002061        0x8 d:/altera13.1/nios2eds/bin/gnu/h-i686-mingw32/bin/../lib/gcc/nios2-elf/4.7.3\libgcc.a(_ge_df.o)
                                0x238 (size before relaxing)
 .debug_str     0x00002069        0x8 d:/altera13.1/nios2eds/bin/gnu/h-i686-mingw32/bin/../lib/gcc/nios2-elf/4.7.3\libgcc.a(_lt_df.o)
                                0x238 (size before relaxing)
 .debug_str     0x00002071       0x21 d:/altera13.1/nios2eds/bin/gnu/h-i686-mingw32/bin/../lib/gcc/nios2-elf/4.7.3\libgcc.a(_si_to_df.o)
                                0x20e (size before relaxing)
 .debug_str     0x00002092        0xa d:/altera13.1/nios2eds/bin/gnu/h-i686-mingw32/bin/../lib/gcc/nios2-elf/4.7.3\libgcc.a(_df_to_si.o)
                                0x230 (size before relaxing)
 .debug_str     0x00000000      0x1c1 d:/altera13.1/nios2eds/bin/gnu/h-i686-mingw32/bin/../lib/gcc/nios2-elf/4.7.3\libgcc.a(_thenan_df.o)
 .debug_str     0x0000209c       0x14 d:/altera13.1/nios2eds/bin/gnu/h-i686-mingw32/bin/../lib/gcc/nios2-elf/4.7.3\libgcc.a(_usi_to_df.o)
                                0x20a (size before relaxing)
 .debug_str     0x00000000      0x160 d:/altera13.1/nios2eds/bin/gnu/h-i686-mingw32/bin/../lib/gcc/nios2-elf/4.7.3\libgcc.a(_clz.o)
 .debug_str     0x00000000      0x17d d:/altera13.1/nios2eds/bin/gnu/h-i686-mingw32/bin/../lib/gcc/nios2-elf/4.7.3\libgcc.a(_clzsi2.o)
 .debug_str     0x000020b0        0x7 d:/altera13.1/nios2eds/bin/gnu/h-i686-mingw32/bin/../lib/gcc/nios2-elf/4.7.3\libgcc.a(_pack_df.o)
                                0x224 (size before relaxing)
 .debug_str     0x00000000      0x206 d:/altera13.1/nios2eds/bin/gnu/h-i686-mingw32/bin/../lib/gcc/nios2-elf/4.7.3\libgcc.a(_unpack_df.o)
 .debug_str     0x00000000      0x1e4 d:/altera13.1/nios2eds/bin/gnu/h-i686-mingw32/bin/../lib/gcc/nios2-elf/4.7.3\libgcc.a(_fpcmp_parts_df.o)
 .debug_str     0x000020b7       0x23 d:/altera13.1/nios2eds/bin/gnu/h-i686-mingw32/bin/../lib/gcc/nios2-elf/4.7.3\libgcc.a(_lshrdi3.o)
                                0x194 (size before relaxing)
 .debug_str     0x000020da        0xa d:/altera13.1/nios2eds/bin/gnu/h-i686-mingw32/bin/../lib/gcc/nios2-elf/4.7.3\libgcc.a(_ashldi3.o)
                                0x194 (size before relaxing)
 .debug_str     0x000020e4       0xec ../DE1_SoC_SDRAM_Nios_Test_bsp/\libhal_bsp.a(alt_close.o)
                                0x1f6 (size before relaxing)
 .debug_str     0x000021d0       0x34 ../DE1_SoC_SDRAM_Nios_Test_bsp/\libhal_bsp.a(alt_dcache_flush_all.o)
                                0x140 (size before relaxing)
 .debug_str     0x00002204       0x50 ../DE1_SoC_SDRAM_Nios_Test_bsp/\libhal_bsp.a(alt_dev.o)
                                0x2f0 (size before relaxing)
 .debug_str     0x00002254       0x14 ../DE1_SoC_SDRAM_Nios_Test_bsp/\libhal_bsp.a(alt_errno.o)
                                0x130 (size before relaxing)
 .debug_str     0x00002268       0x14 ../DE1_SoC_SDRAM_Nios_Test_bsp/\libhal_bsp.a(alt_fstat.o)
                                0x2d7 (size before relaxing)
 .debug_str     0x0000227c       0x15 ../DE1_SoC_SDRAM_Nios_Test_bsp/\libhal_bsp.a(alt_isatty.o)
                                0x2df (size before relaxing)
 .debug_str     0x00002291       0xe9 ../DE1_SoC_SDRAM_Nios_Test_bsp/\libhal_bsp.a(alt_load.o)
                                0x1fd (size before relaxing)
 .debug_str     0x0000237a       0x14 ../DE1_SoC_SDRAM_Nios_Test_bsp/\libhal_bsp.a(alt_lseek.o)
                                0x1fc (size before relaxing)
 .debug_str     0x0000238e       0x44 ../DE1_SoC_SDRAM_Nios_Test_bsp/\libhal_bsp.a(alt_main.o)
                                0x188 (size before relaxing)
 .debug_str     0x000023d2       0x1a ../DE1_SoC_SDRAM_Nios_Test_bsp/\libhal_bsp.a(alt_malloc_lock.o)
                                0x4d9 (size before relaxing)
 .debug_str     0x000023ec       0x13 ../DE1_SoC_SDRAM_Nios_Test_bsp/\libhal_bsp.a(alt_read.o)
                                0x2e2 (size before relaxing)
 .debug_str     0x000023ff       0x28 ../DE1_SoC_SDRAM_Nios_Test_bsp/\libhal_bsp.a(alt_release_fd.o)
                                0x1ca (size before relaxing)
 .debug_str     0x00002427       0x98 ../DE1_SoC_SDRAM_Nios_Test_bsp/\libhal_bsp.a(alt_sbrk.o)
                                0x1bf (size before relaxing)
 .debug_str     0x000024bf       0x7e ../DE1_SoC_SDRAM_Nios_Test_bsp/\libhal_bsp.a(alt_tick.o)
                                0x23d (size before relaxing)
 .debug_str     0x0000253d       0x27 ../DE1_SoC_SDRAM_Nios_Test_bsp/\libhal_bsp.a(alt_usleep.o)
                                0x133 (size before relaxing)
 .debug_str     0x00002564       0x14 ../DE1_SoC_SDRAM_Nios_Test_bsp/\libhal_bsp.a(alt_write.o)
                                0x2e3 (size before relaxing)
 .debug_str     0x00002578      0x151 ../DE1_SoC_SDRAM_Nios_Test_bsp/\libhal_bsp.a(alt_sys_init.o)
                                0x379 (size before relaxing)
 .debug_str     0x000026c9       0xac ../DE1_SoC_SDRAM_Nios_Test_bsp/\libhal_bsp.a(altera_avalon_jtag_uart_fd.o)
                                0x38f (size before relaxing)
 .debug_str     0x00002775       0xbc ../DE1_SoC_SDRAM_Nios_Test_bsp/\libhal_bsp.a(altera_avalon_jtag_uart_init.o)
                                0x323 (size before relaxing)
 .debug_str     0x00002831       0x4a ../DE1_SoC_SDRAM_Nios_Test_bsp/\libhal_bsp.a(altera_avalon_jtag_uart_ioctl.o)
                                0x27e (size before relaxing)
 .debug_str     0x0000287b       0x48 ../DE1_SoC_SDRAM_Nios_Test_bsp/\libhal_bsp.a(altera_avalon_jtag_uart_read.o)
                                0x2d3 (size before relaxing)
 .debug_str     0x000028c3       0x4a ../DE1_SoC_SDRAM_Nios_Test_bsp/\libhal_bsp.a(altera_avalon_jtag_uart_write.o)
                                0x2d4 (size before relaxing)
 .debug_str     0x0000290d       0x6d ../DE1_SoC_SDRAM_Nios_Test_bsp/\libhal_bsp.a(altera_avalon_timer_sc.o)
                                0x236 (size before relaxing)
 .debug_str     0x0000297a       0x4a ../DE1_SoC_SDRAM_Nios_Test_bsp/\libhal_bsp.a(alt_alarm_start.o)
                                0x269 (size before relaxing)
 .debug_str     0x000029c4       0x42 ../DE1_SoC_SDRAM_Nios_Test_bsp/\libhal_bsp.a(alt_busy_sleep.o)
                                0x156 (size before relaxing)
 .debug_str     0x00002a06       0x34 ../DE1_SoC_SDRAM_Nios_Test_bsp/\libhal_bsp.a(alt_dev_llist_insert.o)
                                0x1b7 (size before relaxing)
 .debug_str     0x00002a3a       0x48 ../DE1_SoC_SDRAM_Nios_Test_bsp/\libhal_bsp.a(alt_do_ctors.o)
                                 0xc7 (size before relaxing)
 .debug_str     0x00002a82       0x4c ../DE1_SoC_SDRAM_Nios_Test_bsp/\libhal_bsp.a(alt_do_dtors.o)
                                 0xc6 (size before relaxing)
 .debug_str     0x00002ace       0x34 ../DE1_SoC_SDRAM_Nios_Test_bsp/\libhal_bsp.a(alt_icache_flush_all.o)
                                0x140 (size before relaxing)
 .debug_str     0x00002b02       0xc4 ../DE1_SoC_SDRAM_Nios_Test_bsp/\libhal_bsp.a(alt_iic.o)
                                0x229 (size before relaxing)
 .debug_str     0x00002bc6       0x4c ../DE1_SoC_SDRAM_Nios_Test_bsp/\libhal_bsp.a(alt_iic_isr_register.o)
                                0x1d3 (size before relaxing)
 .debug_str     0x00002c12       0x56 ../DE1_SoC_SDRAM_Nios_Test_bsp/\libhal_bsp.a(alt_io_redirect.o)
                                0x301 (size before relaxing)
 .debug_str     0x00002c68       0x3a ../DE1_SoC_SDRAM_Nios_Test_bsp/\libhal_bsp.a(alt_irq_handler.o)
                                0x182 (size before relaxing)
 .debug_str     0x00002ca2       0x17 ../DE1_SoC_SDRAM_Nios_Test_bsp/\libhal_bsp.a(alt_irq_vars.o)
                                0x131 (size before relaxing)
 .debug_str     0x00002cb9       0x29 ../DE1_SoC_SDRAM_Nios_Test_bsp/\libhal_bsp.a(alt_open.o)
                                0x236 (size before relaxing)
 .debug_str     0x00002ce2       0x3b ../DE1_SoC_SDRAM_Nios_Test_bsp/\libhal_bsp.a(altera_nios2_qsys_irq.o)
                                0x147 (size before relaxing)
 .debug_str     0x00002d1d       0x24 ../DE1_SoC_SDRAM_Nios_Test_bsp/\libhal_bsp.a(alt_find_dev.o)
                                0x1d7 (size before relaxing)
 .debug_str     0x00002d41       0x26 ../DE1_SoC_SDRAM_Nios_Test_bsp/\libhal_bsp.a(alt_find_file.o)
                                0x1e5 (size before relaxing)
 .debug_str     0x00002d67       0x30 ../DE1_SoC_SDRAM_Nios_Test_bsp/\libhal_bsp.a(alt_get_fd.o)
                                0x207 (size before relaxing)
 .debug_str     0x00002d97       0x2c ../DE1_SoC_SDRAM_Nios_Test_bsp/\libhal_bsp.a(alt_icache_flush.o)
                                0x146 (size before relaxing)
 .debug_str     0x00002dc3       0x7f d:/altera13.1/nios2eds/bin/gnu/h-i686-mingw32/bin/../lib/gcc/nios2-elf/4.7.3/../../../../../H-i686-mingw32/nios2-elf/lib\libc.a(lib_a-atexit.o)
                                0x20f (size before relaxing)
 .debug_str     0x00002e42       0x4a d:/altera13.1/nios2eds/bin/gnu/h-i686-mingw32/bin/../lib/gcc/nios2-elf/4.7.3/../../../../../H-i686-mingw32/nios2-elf/lib\libc.a(lib_a-exit.o)
                                0x52f (size before relaxing)
 .debug_str     0x00002e8c       0x42 d:/altera13.1/nios2eds/bin/gnu/h-i686-mingw32/bin/../lib/gcc/nios2-elf/4.7.3/../../../../../H-i686-mingw32/nios2-elf/lib\libc.a(lib_a-memcmp.o)
                                0x176 (size before relaxing)
 .debug_str     0x00002ece       0x3d d:/altera13.1/nios2eds/bin/gnu/h-i686-mingw32/bin/../lib/gcc/nios2-elf/4.7.3/../../../../../H-i686-mingw32/nios2-elf/lib\libc.a(lib_a-__atexit.o)
                                0x573 (size before relaxing)
 .debug_str     0x00002f0b       0x5c d:/altera13.1/nios2eds/bin/gnu/h-i686-mingw32/bin/../lib/gcc/nios2-elf/4.7.3/../../../../../H-i686-mingw32/nios2-elf/lib\libc.a(lib_a-__call_atexit.o)
                                0x551 (size before relaxing)
 .debug_str     0x00002f67       0x2a ../DE1_SoC_SDRAM_Nios_Test_bsp/\libhal_bsp.a(alt_exit.o)
                                0x13c (size before relaxing)

.debug_loc      0x00000000    0x109d3
 *(.debug_loc)
 .debug_loc     0x00000000       0x2c obj/default/main.o
 .debug_loc     0x0000002c       0x5a obj/default/mem_verify.o
 .debug_loc     0x00000086      0x338 d:/altera13.1/nios2eds/bin/gnu/h-i686-mingw32/bin/../lib/gcc/nios2-elf/4.7.3\libgcc.a(lib2-divmod.o)
 .debug_loc     0x000003be      0x1f2 d:/altera13.1/nios2eds/bin/gnu/h-i686-mingw32/bin/../lib/gcc/nios2-elf/4.7.3/../../../../../H-i686-mingw32/nios2-elf/lib\libc.a(lib_a-memcpy.o)
 .debug_loc     0x000005b0      0x132 d:/altera13.1/nios2eds/bin/gnu/h-i686-mingw32/bin/../lib/gcc/nios2-elf/4.7.3/../../../../../H-i686-mingw32/nios2-elf/lib\libc.a(lib_a-printf.o)
 .debug_loc     0x000006e2       0x6e d:/altera13.1/nios2eds/bin/gnu/h-i686-mingw32/bin/../lib/gcc/nios2-elf/4.7.3/../../../../../H-i686-mingw32/nios2-elf/lib\libc.a(lib_a-putchar.o)
 .debug_loc     0x00000750       0xd9 d:/altera13.1/nios2eds/bin/gnu/h-i686-mingw32/bin/../lib/gcc/nios2-elf/4.7.3/../../../../../H-i686-mingw32/nios2-elf/lib\libc.a(lib_a-puts.o)
 .debug_loc     0x00000829       0x20 d:/altera13.1/nios2eds/bin/gnu/h-i686-mingw32/bin/../lib/gcc/nios2-elf/4.7.3/../../../../../H-i686-mingw32/nios2-elf/lib\libc.a(lib_a-rand.o)
 .debug_loc     0x00000849       0x52 d:/altera13.1/nios2eds/bin/gnu/h-i686-mingw32/bin/../lib/gcc/nios2-elf/4.7.3/../../../../../H-i686-mingw32/nios2-elf/lib\libc.a(lib_a-strlen.o)
 .debug_loc     0x0000089b     0x2b6b d:/altera13.1/nios2eds/bin/gnu/h-i686-mingw32/bin/../lib/gcc/nios2-elf/4.7.3/../../../../../H-i686-mingw32/nios2-elf/lib\libc.a(lib_a-vfprintf.o)
 .debug_loc     0x00003406       0xba d:/altera13.1/nios2eds/bin/gnu/h-i686-mingw32/bin/../lib/gcc/nios2-elf/4.7.3/../../../../../H-i686-mingw32/nios2-elf/lib\libc.a(lib_a-wsetup.o)
 .debug_loc     0x000034c0     0x2286 d:/altera13.1/nios2eds/bin/gnu/h-i686-mingw32/bin/../lib/gcc/nios2-elf/4.7.3/../../../../../H-i686-mingw32/nios2-elf/lib\libc.a(lib_a-dtoa.o)
 .debug_loc     0x00005746      0x259 d:/altera13.1/nios2eds/bin/gnu/h-i686-mingw32/bin/../lib/gcc/nios2-elf/4.7.3/../../../../../H-i686-mingw32/nios2-elf/lib\libc.a(lib_a-fflush.o)
 .debug_loc     0x0000599f      0x29c d:/altera13.1/nios2eds/bin/gnu/h-i686-mingw32/bin/../lib/gcc/nios2-elf/4.7.3/../../../../../H-i686-mingw32/nios2-elf/lib\libc.a(lib_a-findfp.o)
 .debug_loc     0x00005c3b      0x668 d:/altera13.1/nios2eds/bin/gnu/h-i686-mingw32/bin/../lib/gcc/nios2-elf/4.7.3/../../../../../H-i686-mingw32/nios2-elf/lib\libc.a(lib_a-freer.o)
 .debug_loc     0x000062a3      0x50c d:/altera13.1/nios2eds/bin/gnu/h-i686-mingw32/bin/../lib/gcc/nios2-elf/4.7.3/../../../../../H-i686-mingw32/nios2-elf/lib\libc.a(lib_a-fvwrite.o)
 .debug_loc     0x000067af      0x2ae d:/altera13.1/nios2eds/bin/gnu/h-i686-mingw32/bin/../lib/gcc/nios2-elf/4.7.3/../../../../../H-i686-mingw32/nios2-elf/lib\libc.a(lib_a-fwalk.o)
 .debug_loc     0x00006a5d      0x13e d:/altera13.1/nios2eds/bin/gnu/h-i686-mingw32/bin/../lib/gcc/nios2-elf/4.7.3/../../../../../H-i686-mingw32/nios2-elf/lib\libc.a(lib_a-locale.o)
 .debug_loc     0x00006b9b      0x16a d:/altera13.1/nios2eds/bin/gnu/h-i686-mingw32/bin/../lib/gcc/nios2-elf/4.7.3/../../../../../H-i686-mingw32/nios2-elf/lib\libc.a(lib_a-makebuf.o)
 .debug_loc     0x00006d05      0xb50 d:/altera13.1/nios2eds/bin/gnu/h-i686-mingw32/bin/../lib/gcc/nios2-elf/4.7.3/../../../../../H-i686-mingw32/nios2-elf/lib\libc.a(lib_a-mallocr.o)
 .debug_loc     0x00007855      0x239 d:/altera13.1/nios2eds/bin/gnu/h-i686-mingw32/bin/../lib/gcc/nios2-elf/4.7.3/../../../../../H-i686-mingw32/nios2-elf/lib\libc.a(lib_a-memchr.o)
 .debug_loc     0x00007a8e      0x240 d:/altera13.1/nios2eds/bin/gnu/h-i686-mingw32/bin/../lib/gcc/nios2-elf/4.7.3/../../../../../H-i686-mingw32/nios2-elf/lib\libc.a(lib_a-memmove.o)
 .debug_loc     0x00007cce      0x1b7 d:/altera13.1/nios2eds/bin/gnu/h-i686-mingw32/bin/../lib/gcc/nios2-elf/4.7.3/../../../../../H-i686-mingw32/nios2-elf/lib\libc.a(lib_a-memset.o)
 .debug_loc     0x00007e85     0x1b23 d:/altera13.1/nios2eds/bin/gnu/h-i686-mingw32/bin/../lib/gcc/nios2-elf/4.7.3/../../../../../H-i686-mingw32/nios2-elf/lib\libc.a(lib_a-mprec.o)
 .debug_loc     0x000099a8      0x257 d:/altera13.1/nios2eds/bin/gnu/h-i686-mingw32/bin/../lib/gcc/nios2-elf/4.7.3/../../../../../H-i686-mingw32/nios2-elf/lib\libc.a(lib_a-putc.o)
 .debug_loc     0x00009bff     0x1136 d:/altera13.1/nios2eds/bin/gnu/h-i686-mingw32/bin/../lib/gcc/nios2-elf/4.7.3/../../../../../H-i686-mingw32/nios2-elf/lib\libc.a(lib_a-reallocr.o)
 .debug_loc     0x0000ad35       0x88 d:/altera13.1/nios2eds/bin/gnu/h-i686-mingw32/bin/../lib/gcc/nios2-elf/4.7.3/../../../../../H-i686-mingw32/nios2-elf/lib\libc.a(lib_a-s_isinfd.o)
 .debug_loc     0x0000adbd       0xa5 d:/altera13.1/nios2eds/bin/gnu/h-i686-mingw32/bin/../lib/gcc/nios2-elf/4.7.3/../../../../../H-i686-mingw32/nios2-elf/lib\libc.a(lib_a-s_isnand.o)
 .debug_loc     0x0000ae62       0x86 d:/altera13.1/nios2eds/bin/gnu/h-i686-mingw32/bin/../lib/gcc/nios2-elf/4.7.3/../../../../../H-i686-mingw32/nios2-elf/lib\libc.a(lib_a-sbrkr.o)
 .debug_loc     0x0000aee8      0x379 d:/altera13.1/nios2eds/bin/gnu/h-i686-mingw32/bin/../lib/gcc/nios2-elf/4.7.3/../../../../../H-i686-mingw32/nios2-elf/lib\libc.a(lib_a-stdio.o)
 .debug_loc     0x0000b261       0xb0 d:/altera13.1/nios2eds/bin/gnu/h-i686-mingw32/bin/../lib/gcc/nios2-elf/4.7.3/../../../../../H-i686-mingw32/nios2-elf/lib\libc.a(lib_a-strcmp.o)
 .debug_loc     0x0000b311      0x193 d:/altera13.1/nios2eds/bin/gnu/h-i686-mingw32/bin/../lib/gcc/nios2-elf/4.7.3/../../../../../H-i686-mingw32/nios2-elf/lib\libc.a(lib_a-wbuf.o)
 .debug_loc     0x0000b4a4       0xde d:/altera13.1/nios2eds/bin/gnu/h-i686-mingw32/bin/../lib/gcc/nios2-elf/4.7.3/../../../../../H-i686-mingw32/nios2-elf/lib\libc.a(lib_a-writer.o)
 .debug_loc     0x0000b582      0x283 d:/altera13.1/nios2eds/bin/gnu/h-i686-mingw32/bin/../lib/gcc/nios2-elf/4.7.3/../../../../../H-i686-mingw32/nios2-elf/lib\libc.a(lib_a-callocr.o)
 .debug_loc     0x0000b805       0x86 d:/altera13.1/nios2eds/bin/gnu/h-i686-mingw32/bin/../lib/gcc/nios2-elf/4.7.3/../../../../../H-i686-mingw32/nios2-elf/lib\libc.a(lib_a-closer.o)
 .debug_loc     0x0000b88b      0x136 d:/altera13.1/nios2eds/bin/gnu/h-i686-mingw32/bin/../lib/gcc/nios2-elf/4.7.3/../../../../../H-i686-mingw32/nios2-elf/lib\libc.a(lib_a-fclose.o)
 .debug_loc     0x0000b9c1       0xb2 d:/altera13.1/nios2eds/bin/gnu/h-i686-mingw32/bin/../lib/gcc/nios2-elf/4.7.3/../../../../../H-i686-mingw32/nios2-elf/lib\libc.a(lib_a-fstatr.o)
 .debug_loc     0x0000ba73       0x86 d:/altera13.1/nios2eds/bin/gnu/h-i686-mingw32/bin/../lib/gcc/nios2-elf/4.7.3/../../../../../H-i686-mingw32/nios2-elf/lib\libc.a(lib_a-isattyr.o)
 .debug_loc     0x0000baf9       0xde d:/altera13.1/nios2eds/bin/gnu/h-i686-mingw32/bin/../lib/gcc/nios2-elf/4.7.3/../../../../../H-i686-mingw32/nios2-elf/lib\libc.a(lib_a-lseekr.o)
 .debug_loc     0x0000bbd7       0xde d:/altera13.1/nios2eds/bin/gnu/h-i686-mingw32/bin/../lib/gcc/nios2-elf/4.7.3/../../../../../H-i686-mingw32/nios2-elf/lib\libc.a(lib_a-readr.o)
 .debug_loc     0x0000bcb5      0x15d d:/altera13.1/nios2eds/bin/gnu/h-i686-mingw32/bin/../lib/gcc/nios2-elf/4.7.3\libgcc.a(_muldi3.o)
 .debug_loc     0x0000be12     0x10da d:/altera13.1/nios2eds/bin/gnu/h-i686-mingw32/bin/../lib/gcc/nios2-elf/4.7.3\libgcc.a(_udivdi3.o)
 .debug_loc     0x0000ceec     0x104d d:/altera13.1/nios2eds/bin/gnu/h-i686-mingw32/bin/../lib/gcc/nios2-elf/4.7.3\libgcc.a(_umoddi3.o)
 .debug_loc     0x0000df39      0x7a1 d:/altera13.1/nios2eds/bin/gnu/h-i686-mingw32/bin/../lib/gcc/nios2-elf/4.7.3\libgcc.a(_addsub_df.o)
 .debug_loc     0x0000e6da      0x3ba d:/altera13.1/nios2eds/bin/gnu/h-i686-mingw32/bin/../lib/gcc/nios2-elf/4.7.3\libgcc.a(_mul_df.o)
 .debug_loc     0x0000ea94      0x25e d:/altera13.1/nios2eds/bin/gnu/h-i686-mingw32/bin/../lib/gcc/nios2-elf/4.7.3\libgcc.a(_div_df.o)
 .debug_loc     0x0000ecf2       0x70 d:/altera13.1/nios2eds/bin/gnu/h-i686-mingw32/bin/../lib/gcc/nios2-elf/4.7.3\libgcc.a(_eq_df.o)
 .debug_loc     0x0000ed62       0x70 d:/altera13.1/nios2eds/bin/gnu/h-i686-mingw32/bin/../lib/gcc/nios2-elf/4.7.3\libgcc.a(_ne_df.o)
 .debug_loc     0x0000edd2       0x70 d:/altera13.1/nios2eds/bin/gnu/h-i686-mingw32/bin/../lib/gcc/nios2-elf/4.7.3\libgcc.a(_gt_df.o)
 .debug_loc     0x0000ee42       0x70 d:/altera13.1/nios2eds/bin/gnu/h-i686-mingw32/bin/../lib/gcc/nios2-elf/4.7.3\libgcc.a(_ge_df.o)
 .debug_loc     0x0000eeb2       0x70 d:/altera13.1/nios2eds/bin/gnu/h-i686-mingw32/bin/../lib/gcc/nios2-elf/4.7.3\libgcc.a(_lt_df.o)
 .debug_loc     0x0000ef22       0xd3 d:/altera13.1/nios2eds/bin/gnu/h-i686-mingw32/bin/../lib/gcc/nios2-elf/4.7.3\libgcc.a(_si_to_df.o)
 .debug_loc     0x0000eff5       0xce d:/altera13.1/nios2eds/bin/gnu/h-i686-mingw32/bin/../lib/gcc/nios2-elf/4.7.3\libgcc.a(_df_to_si.o)
 .debug_loc     0x0000f0c3      0x168 d:/altera13.1/nios2eds/bin/gnu/h-i686-mingw32/bin/../lib/gcc/nios2-elf/4.7.3\libgcc.a(_usi_to_df.o)
 .debug_loc     0x0000f22b      0x19a d:/altera13.1/nios2eds/bin/gnu/h-i686-mingw32/bin/../lib/gcc/nios2-elf/4.7.3\libgcc.a(_clzsi2.o)
 .debug_loc     0x0000f3c5      0x2ae d:/altera13.1/nios2eds/bin/gnu/h-i686-mingw32/bin/../lib/gcc/nios2-elf/4.7.3\libgcc.a(_pack_df.o)
 .debug_loc     0x0000f673      0x179 d:/altera13.1/nios2eds/bin/gnu/h-i686-mingw32/bin/../lib/gcc/nios2-elf/4.7.3\libgcc.a(_unpack_df.o)
 .debug_loc     0x0000f7ec       0x7c d:/altera13.1/nios2eds/bin/gnu/h-i686-mingw32/bin/../lib/gcc/nios2-elf/4.7.3\libgcc.a(_fpcmp_parts_df.o)
 .debug_loc     0x0000f868       0xc4 d:/altera13.1/nios2eds/bin/gnu/h-i686-mingw32/bin/../lib/gcc/nios2-elf/4.7.3\libgcc.a(_lshrdi3.o)
 .debug_loc     0x0000f92c       0xc4 d:/altera13.1/nios2eds/bin/gnu/h-i686-mingw32/bin/../lib/gcc/nios2-elf/4.7.3\libgcc.a(_ashldi3.o)
 .debug_loc     0x0000f9f0       0x58 ../DE1_SoC_SDRAM_Nios_Test_bsp/\libhal_bsp.a(alt_close.o)
 .debug_loc     0x0000fa48       0x2c ../DE1_SoC_SDRAM_Nios_Test_bsp/\libhal_bsp.a(alt_dcache_flush_all.o)
 .debug_loc     0x0000fa74       0x2c ../DE1_SoC_SDRAM_Nios_Test_bsp/\libhal_bsp.a(alt_dev.o)
 .debug_loc     0x0000faa0       0x58 ../DE1_SoC_SDRAM_Nios_Test_bsp/\libhal_bsp.a(alt_fstat.o)
 .debug_loc     0x0000faf8       0x59 ../DE1_SoC_SDRAM_Nios_Test_bsp/\libhal_bsp.a(alt_isatty.o)
 .debug_loc     0x0000fb51       0x58 ../DE1_SoC_SDRAM_Nios_Test_bsp/\libhal_bsp.a(alt_load.o)
 .debug_loc     0x0000fba9       0x58 ../DE1_SoC_SDRAM_Nios_Test_bsp/\libhal_bsp.a(alt_lseek.o)
 .debug_loc     0x0000fc01       0x2c ../DE1_SoC_SDRAM_Nios_Test_bsp/\libhal_bsp.a(alt_main.o)
 .debug_loc     0x0000fc2d       0x58 ../DE1_SoC_SDRAM_Nios_Test_bsp/\libhal_bsp.a(alt_malloc_lock.o)
 .debug_loc     0x0000fc85       0x58 ../DE1_SoC_SDRAM_Nios_Test_bsp/\libhal_bsp.a(alt_read.o)
 .debug_loc     0x0000fcdd       0x2c ../DE1_SoC_SDRAM_Nios_Test_bsp/\libhal_bsp.a(alt_release_fd.o)
 .debug_loc     0x0000fd09       0x2c ../DE1_SoC_SDRAM_Nios_Test_bsp/\libhal_bsp.a(alt_sbrk.o)
 .debug_loc     0x0000fd35       0x58 ../DE1_SoC_SDRAM_Nios_Test_bsp/\libhal_bsp.a(alt_tick.o)
 .debug_loc     0x0000fd8d       0x2c ../DE1_SoC_SDRAM_Nios_Test_bsp/\libhal_bsp.a(alt_usleep.o)
 .debug_loc     0x0000fdb9       0x58 ../DE1_SoC_SDRAM_Nios_Test_bsp/\libhal_bsp.a(alt_write.o)
 .debug_loc     0x0000fe11       0x84 ../DE1_SoC_SDRAM_Nios_Test_bsp/\libhal_bsp.a(alt_sys_init.o)
 .debug_loc     0x0000fe95       0xb0 ../DE1_SoC_SDRAM_Nios_Test_bsp/\libhal_bsp.a(altera_avalon_jtag_uart_fd.o)
 .debug_loc     0x0000ff45       0xb0 ../DE1_SoC_SDRAM_Nios_Test_bsp/\libhal_bsp.a(altera_avalon_jtag_uart_init.o)
 .debug_loc     0x0000fff5       0x2c ../DE1_SoC_SDRAM_Nios_Test_bsp/\libhal_bsp.a(altera_avalon_jtag_uart_ioctl.o)
 .debug_loc     0x00010021       0x2c ../DE1_SoC_SDRAM_Nios_Test_bsp/\libhal_bsp.a(altera_avalon_jtag_uart_read.o)
 .debug_loc     0x0001004d       0x2c ../DE1_SoC_SDRAM_Nios_Test_bsp/\libhal_bsp.a(altera_avalon_jtag_uart_write.o)
 .debug_loc     0x00010079       0x58 ../DE1_SoC_SDRAM_Nios_Test_bsp/\libhal_bsp.a(altera_avalon_timer_sc.o)
 .debug_loc     0x000100d1       0x2c ../DE1_SoC_SDRAM_Nios_Test_bsp/\libhal_bsp.a(alt_alarm_start.o)
 .debug_loc     0x000100fd       0x2c ../DE1_SoC_SDRAM_Nios_Test_bsp/\libhal_bsp.a(alt_busy_sleep.o)
 .debug_loc     0x00010129       0x58 ../DE1_SoC_SDRAM_Nios_Test_bsp/\libhal_bsp.a(alt_dev_llist_insert.o)
 .debug_loc     0x00010181       0x2c ../DE1_SoC_SDRAM_Nios_Test_bsp/\libhal_bsp.a(alt_do_ctors.o)
 .debug_loc     0x000101ad       0x2c ../DE1_SoC_SDRAM_Nios_Test_bsp/\libhal_bsp.a(alt_do_dtors.o)
 .debug_loc     0x000101d9       0x2c ../DE1_SoC_SDRAM_Nios_Test_bsp/\libhal_bsp.a(alt_icache_flush_all.o)
 .debug_loc     0x00010205       0xb0 ../DE1_SoC_SDRAM_Nios_Test_bsp/\libhal_bsp.a(alt_iic.o)
 .debug_loc     0x000102b5       0x2c ../DE1_SoC_SDRAM_Nios_Test_bsp/\libhal_bsp.a(alt_iic_isr_register.o)
 .debug_loc     0x000102e1       0x58 ../DE1_SoC_SDRAM_Nios_Test_bsp/\libhal_bsp.a(alt_io_redirect.o)
 .debug_loc     0x00010339       0x2c ../DE1_SoC_SDRAM_Nios_Test_bsp/\libhal_bsp.a(alt_irq_handler.o)
 .debug_loc     0x00010365       0x84 ../DE1_SoC_SDRAM_Nios_Test_bsp/\libhal_bsp.a(alt_open.o)
 .debug_loc     0x000103e9       0x2c ../DE1_SoC_SDRAM_Nios_Test_bsp/\libhal_bsp.a(altera_nios2_qsys_irq.o)
 .debug_loc     0x00010415       0x2c ../DE1_SoC_SDRAM_Nios_Test_bsp/\libhal_bsp.a(alt_find_dev.o)
 .debug_loc     0x00010441       0x2c ../DE1_SoC_SDRAM_Nios_Test_bsp/\libhal_bsp.a(alt_find_file.o)
 .debug_loc     0x0001046d       0x2c ../DE1_SoC_SDRAM_Nios_Test_bsp/\libhal_bsp.a(alt_get_fd.o)
 .debug_loc     0x00010499       0x2c ../DE1_SoC_SDRAM_Nios_Test_bsp/\libhal_bsp.a(alt_icache_flush.o)
 .debug_loc     0x000104c5       0x2c d:/altera13.1/nios2eds/bin/gnu/h-i686-mingw32/bin/../lib/gcc/nios2-elf/4.7.3/../../../../../H-i686-mingw32/nios2-elf/lib\libc.a(lib_a-atexit.o)
 .debug_loc     0x000104f1       0x3e d:/altera13.1/nios2eds/bin/gnu/h-i686-mingw32/bin/../lib/gcc/nios2-elf/4.7.3/../../../../../H-i686-mingw32/nios2-elf/lib\libc.a(lib_a-exit.o)
 .debug_loc     0x0001052f      0x103 d:/altera13.1/nios2eds/bin/gnu/h-i686-mingw32/bin/../lib/gcc/nios2-elf/4.7.3/../../../../../H-i686-mingw32/nios2-elf/lib\libc.a(lib_a-memcmp.o)
 .debug_loc     0x00010632      0x194 d:/altera13.1/nios2eds/bin/gnu/h-i686-mingw32/bin/../lib/gcc/nios2-elf/4.7.3/../../../../../H-i686-mingw32/nios2-elf/lib\libc.a(lib_a-__atexit.o)
 .debug_loc     0x000107c6      0x1e1 d:/altera13.1/nios2eds/bin/gnu/h-i686-mingw32/bin/../lib/gcc/nios2-elf/4.7.3/../../../../../H-i686-mingw32/nios2-elf/lib\libc.a(lib_a-__call_atexit.o)
 .debug_loc     0x000109a7       0x2c ../DE1_SoC_SDRAM_Nios_Test_bsp/\libhal_bsp.a(alt_exit.o)

.debug_macinfo
 *(.debug_macinfo)

.debug_weaknames
 *(.debug_weaknames)

.debug_funcnames
 *(.debug_funcnames)

.debug_typenames
 *(.debug_typenames)

.debug_varnames
 *(.debug_varnames)

.debug_alt_sim_info
                0x00000000       0x60
 *(.debug_alt_sim_info)
 .debug_alt_sim_info
                0x00000000       0x30 ../DE1_SoC_SDRAM_Nios_Test_bsp//obj/HAL/src/crt0.o
 .debug_alt_sim_info
                0x00000030       0x30 ../DE1_SoC_SDRAM_Nios_Test_bsp/\libhal_bsp.a(alt_busy_sleep.o)
                0x2003f400                __alt_data_end = 0x2003f400
                0x2003f400                PROVIDE (__alt_stack_pointer, __alt_data_end)
                0x200306ec                PROVIDE (__alt_stack_limit, __alt_stack_base)
                0x200306ec                PROVIDE (__alt_heap_start, end)
                0x2003f400                PROVIDE (__alt_heap_limit, 0x2003f400)
OUTPUT(DE1_SoC_SDRAM_Nios_Test.elf elf32-littlenios2)

.debug_ranges   0x00000000      0xa58
 .debug_ranges  0x00000000       0x20 ../DE1_SoC_SDRAM_Nios_Test_bsp//obj/HAL/src/crt0.o
 .debug_ranges  0x00000020      0x150 d:/altera13.1/nios2eds/bin/gnu/h-i686-mingw32/bin/../lib/gcc/nios2-elf/4.7.3/../../../../../H-i686-mingw32/nios2-elf/lib\libc.a(lib_a-vfprintf.o)
 .debug_ranges  0x00000170       0x20 d:/altera13.1/nios2eds/bin/gnu/h-i686-mingw32/bin/../lib/gcc/nios2-elf/4.7.3/../../../../../H-i686-mingw32/nios2-elf/lib\libc.a(lib_a-fflush.o)
 .debug_ranges  0x00000190       0x18 d:/altera13.1/nios2eds/bin/gnu/h-i686-mingw32/bin/../lib/gcc/nios2-elf/4.7.3/../../../../../H-i686-mingw32/nios2-elf/lib\libc.a(lib_a-fvwrite.o)
 .debug_ranges  0x000001a8       0x80 d:/altera13.1/nios2eds/bin/gnu/h-i686-mingw32/bin/../lib/gcc/nios2-elf/4.7.3/../../../../../H-i686-mingw32/nios2-elf/lib\libc.a(lib_a-fwalk.o)
 .debug_ranges  0x00000228       0x70 d:/altera13.1/nios2eds/bin/gnu/h-i686-mingw32/bin/../lib/gcc/nios2-elf/4.7.3/../../../../../H-i686-mingw32/nios2-elf/lib\libc.a(lib_a-mallocr.o)
 .debug_ranges  0x00000298       0x40 d:/altera13.1/nios2eds/bin/gnu/h-i686-mingw32/bin/../lib/gcc/nios2-elf/4.7.3/../../../../../H-i686-mingw32/nios2-elf/lib\libc.a(lib_a-mprec.o)
 .debug_ranges  0x000002d8      0x158 d:/altera13.1/nios2eds/bin/gnu/h-i686-mingw32/bin/../lib/gcc/nios2-elf/4.7.3/../../../../../H-i686-mingw32/nios2-elf/lib\libc.a(lib_a-reallocr.o)
 .debug_ranges  0x00000430       0x48 d:/altera13.1/nios2eds/bin/gnu/h-i686-mingw32/bin/../lib/gcc/nios2-elf/4.7.3/../../../../../H-i686-mingw32/nios2-elf/lib\libc.a(lib_a-callocr.o)
 .debug_ranges  0x00000478       0x30 d:/altera13.1/nios2eds/bin/gnu/h-i686-mingw32/bin/../lib/gcc/nios2-elf/4.7.3\libgcc.a(_muldi3.o)
 .debug_ranges  0x000004a8      0x1a0 d:/altera13.1/nios2eds/bin/gnu/h-i686-mingw32/bin/../lib/gcc/nios2-elf/4.7.3\libgcc.a(_udivdi3.o)
 .debug_ranges  0x00000648      0x160 d:/altera13.1/nios2eds/bin/gnu/h-i686-mingw32/bin/../lib/gcc/nios2-elf/4.7.3\libgcc.a(_umoddi3.o)
 .debug_ranges  0x000007a8       0x38 d:/altera13.1/nios2eds/bin/gnu/h-i686-mingw32/bin/../lib/gcc/nios2-elf/4.7.3\libgcc.a(_addsub_df.o)
 .debug_ranges  0x000007e0       0x78 d:/altera13.1/nios2eds/bin/gnu/h-i686-mingw32/bin/../lib/gcc/nios2-elf/4.7.3\libgcc.a(_mul_df.o)
 .debug_ranges  0x00000858       0x50 d:/altera13.1/nios2eds/bin/gnu/h-i686-mingw32/bin/../lib/gcc/nios2-elf/4.7.3\libgcc.a(_div_df.o)
 .debug_ranges  0x000008a8       0x30 d:/altera13.1/nios2eds/bin/gnu/h-i686-mingw32/bin/../lib/gcc/nios2-elf/4.7.3\libgcc.a(_si_to_df.o)
 .debug_ranges  0x000008d8       0x48 d:/altera13.1/nios2eds/bin/gnu/h-i686-mingw32/bin/../lib/gcc/nios2-elf/4.7.3\libgcc.a(_usi_to_df.o)
 .debug_ranges  0x00000920       0x28 d:/altera13.1/nios2eds/bin/gnu/h-i686-mingw32/bin/../lib/gcc/nios2-elf/4.7.3\libgcc.a(_clzsi2.o)
 .debug_ranges  0x00000948       0x18 d:/altera13.1/nios2eds/bin/gnu/h-i686-mingw32/bin/../lib/gcc/nios2-elf/4.7.3\libgcc.a(_pack_df.o)
 .debug_ranges  0x00000960       0x30 ../DE1_SoC_SDRAM_Nios_Test_bsp/\libhal_bsp.a(altera_avalon_jtag_uart_init.o)
 .debug_ranges  0x00000990       0x18 ../DE1_SoC_SDRAM_Nios_Test_bsp/\libhal_bsp.a(altera_avalon_jtag_uart_read.o)
 .debug_ranges  0x000009a8       0x30 ../DE1_SoC_SDRAM_Nios_Test_bsp/\libhal_bsp.a(alt_iic.o)
 .debug_ranges  0x000009d8       0x28 ../DE1_SoC_SDRAM_Nios_Test_bsp/\libhal_bsp.a(alt_irq_entry.o)
 .debug_ranges  0x00000a00       0x10 ../DE1_SoC_SDRAM_Nios_Test_bsp/\libhal_bsp.a(alt_irq_handler.o)
 .debug_ranges  0x00000a10       0x30 ../DE1_SoC_SDRAM_Nios_Test_bsp/\libhal_bsp.a(alt_exception_entry.o)
 .debug_ranges  0x00000a40       0x18 d:/altera13.1/nios2eds/bin/gnu/h-i686-mingw32/bin/../lib/gcc/nios2-elf/4.7.3/../../../../../H-i686-mingw32/nios2-elf/lib\libc.a(lib_a-__call_atexit.o)
